
M_VAM_EcoGreen.elf:     file format elf32-littlearm

Sections:
Idx Name          Size      VMA       LMA       File off  Algn
  0 .isr_vector   0000010c  08000000  08000000  00001000  2**0
                  CONTENTS, ALLOC, LOAD, READONLY, DATA
  1 .text         00004b98  0800010c  0800010c  0000110c  2**2
                  CONTENTS, ALLOC, LOAD, READONLY, CODE
  2 .rodata       0000002c  08004ca4  08004ca4  00005ca4  2**2
                  CONTENTS, ALLOC, LOAD, READONLY, DATA
  3 .ARM.extab    00000000  08004cd0  08004cd0  0000600c  2**0
                  CONTENTS, READONLY
  4 .ARM          00000000  08004cd0  08004cd0  0000600c  2**0
                  CONTENTS, READONLY
  5 .preinit_array 00000000  08004cd0  08004cd0  0000600c  2**0
                  CONTENTS, ALLOC, LOAD, DATA
  6 .init_array   00000004  08004cd0  08004cd0  00005cd0  2**2
                  CONTENTS, ALLOC, LOAD, READONLY, DATA
  7 .fini_array   00000004  08004cd4  08004cd4  00005cd4  2**2
                  CONTENTS, ALLOC, LOAD, READONLY, DATA
  8 .data         0000000c  20000000  08004cd8  00006000  2**2
                  CONTENTS, ALLOC, LOAD, DATA
  9 .bss          000001bc  2000000c  08004ce4  0000600c  2**2
                  ALLOC
 10 ._user_heap_stack 00000600  200001c8  08004ce4  000061c8  2**0
                  ALLOC
 11 .ARM.attributes 00000029  00000000  00000000  0000600c  2**0
                  CONTENTS, READONLY
 12 .debug_info   0000e859  00000000  00000000  00006035  2**0
                  CONTENTS, READONLY, DEBUGGING, OCTETS
 13 .debug_abbrev 000021d8  00000000  00000000  0001488e  2**0
                  CONTENTS, READONLY, DEBUGGING, OCTETS
 14 .debug_aranges 00000df8  00000000  00000000  00016a68  2**3
                  CONTENTS, READONLY, DEBUGGING, OCTETS
 15 .debug_rnglists 00000ae9  00000000  00000000  00017860  2**0
                  CONTENTS, READONLY, DEBUGGING, OCTETS
 16 .debug_macro  0001835d  00000000  00000000  00018349  2**0
                  CONTENTS, READONLY, DEBUGGING, OCTETS
 17 .debug_line   0000f8ed  00000000  00000000  000306a6  2**0
                  CONTENTS, READONLY, DEBUGGING, OCTETS
 18 .debug_str    0008d52c  00000000  00000000  0003ff93  2**0
                  CONTENTS, READONLY, DEBUGGING, OCTETS
 19 .comment      00000043  00000000  00000000  000cd4bf  2**0
                  CONTENTS, READONLY
 20 .debug_frame  00003a5c  00000000  00000000  000cd504  2**2
                  CONTENTS, READONLY, DEBUGGING, OCTETS
 21 .debug_line_str 00000055  00000000  00000000  000d0f60  2**0
                  CONTENTS, READONLY, DEBUGGING, OCTETS

Disassembly of section .text:

0800010c <__do_global_dtors_aux>:
 800010c:	b510      	push	{r4, lr}
 800010e:	4c05      	ldr	r4, [pc, #20]	@ (8000124 <__do_global_dtors_aux+0x18>)
 8000110:	7823      	ldrb	r3, [r4, #0]
 8000112:	b933      	cbnz	r3, 8000122 <__do_global_dtors_aux+0x16>
 8000114:	4b04      	ldr	r3, [pc, #16]	@ (8000128 <__do_global_dtors_aux+0x1c>)
 8000116:	b113      	cbz	r3, 800011e <__do_global_dtors_aux+0x12>
 8000118:	4804      	ldr	r0, [pc, #16]	@ (800012c <__do_global_dtors_aux+0x20>)
 800011a:	f3af 8000 	nop.w
 800011e:	2301      	movs	r3, #1
 8000120:	7023      	strb	r3, [r4, #0]
 8000122:	bd10      	pop	{r4, pc}
 8000124:	2000000c 	.word	0x2000000c
 8000128:	00000000 	.word	0x00000000
 800012c:	08004c8c 	.word	0x08004c8c

08000130 <frame_dummy>:
 8000130:	b508      	push	{r3, lr}
 8000132:	4b03      	ldr	r3, [pc, #12]	@ (8000140 <frame_dummy+0x10>)
 8000134:	b11b      	cbz	r3, 800013e <frame_dummy+0xe>
 8000136:	4903      	ldr	r1, [pc, #12]	@ (8000144 <frame_dummy+0x14>)
 8000138:	4803      	ldr	r0, [pc, #12]	@ (8000148 <frame_dummy+0x18>)
 800013a:	f3af 8000 	nop.w
 800013e:	bd08      	pop	{r3, pc}
 8000140:	00000000 	.word	0x00000000
 8000144:	20000010 	.word	0x20000010
 8000148:	08004c8c 	.word	0x08004c8c

0800014c <Send_cmd>:
 800014c:	b580      	push	{r7, lr}
 800014e:	b086      	sub	sp, #24
 8000150:	af00      	add	r7, sp, #0
 8000152:	4603      	mov	r3, r0
 8000154:	71fb      	strb	r3, [r7, #7]
 8000156:	460b      	mov	r3, r1
 8000158:	71bb      	strb	r3, [r7, #6]
 800015a:	4613      	mov	r3, r2
 800015c:	717b      	strb	r3, [r7, #5]
 800015e:	79fb      	ldrb	r3, [r7, #7]
 8000160:	b29a      	uxth	r2, r3
 8000162:	79bb      	ldrb	r3, [r7, #6]
 8000164:	b29b      	uxth	r3, r3
 8000166:	4413      	add	r3, r2
 8000168:	b29a      	uxth	r2, r3
 800016a:	797b      	ldrb	r3, [r7, #5]
 800016c:	b29b      	uxth	r3, r3
 800016e:	4413      	add	r3, r2
 8000170:	b29b      	uxth	r3, r3
 8000172:	f203 1305 	addw	r3, r3, #261	@ 0x105
 8000176:	82fb      	strh	r3, [r7, #22]
 8000178:	8afb      	ldrh	r3, [r7, #22]
 800017a:	425b      	negs	r3, r3
 800017c:	82fb      	strh	r3, [r7, #22]
 800017e:	237e      	movs	r3, #126	@ 0x7e
 8000180:	733b      	strb	r3, [r7, #12]
 8000182:	23ff      	movs	r3, #255	@ 0xff
 8000184:	737b      	strb	r3, [r7, #13]
 8000186:	2306      	movs	r3, #6
 8000188:	73bb      	strb	r3, [r7, #14]
 800018a:	79fb      	ldrb	r3, [r7, #7]
 800018c:	73fb      	strb	r3, [r7, #15]
 800018e:	2300      	movs	r3, #0
 8000190:	743b      	strb	r3, [r7, #16]
 8000192:	79bb      	ldrb	r3, [r7, #6]
 8000194:	747b      	strb	r3, [r7, #17]
 8000196:	797b      	ldrb	r3, [r7, #5]
 8000198:	74bb      	strb	r3, [r7, #18]
 800019a:	8afb      	ldrh	r3, [r7, #22]
 800019c:	0a1b      	lsrs	r3, r3, #8
 800019e:	b29b      	uxth	r3, r3
 80001a0:	b2db      	uxtb	r3, r3
 80001a2:	74fb      	strb	r3, [r7, #19]
 80001a4:	8afb      	ldrh	r3, [r7, #22]
 80001a6:	b2db      	uxtb	r3, r3
 80001a8:	753b      	strb	r3, [r7, #20]
 80001aa:	23ef      	movs	r3, #239	@ 0xef
 80001ac:	757b      	strb	r3, [r7, #21]
 80001ae:	f107 010c 	add.w	r1, r7, #12
 80001b2:	f04f 33ff 	mov.w	r3, #4294967295
 80001b6:	220a      	movs	r2, #10
 80001b8:	4803      	ldr	r0, [pc, #12]	@ (80001c8 <Send_cmd+0x7c>)
 80001ba:	f003 fd5f 	bl	8003c7c <HAL_UART_Transmit>
 80001be:	bf00      	nop
 80001c0:	3718      	adds	r7, #24
 80001c2:	46bd      	mov	sp, r7
 80001c4:	bd80      	pop	{r7, pc}
 80001c6:	bf00      	nop
 80001c8:	200000a4 	.word	0x200000a4

080001cc <DF_Init>:
 80001cc:	b580      	push	{r7, lr}
 80001ce:	b082      	sub	sp, #8
 80001d0:	af00      	add	r7, sp, #0
 80001d2:	4603      	mov	r3, r0
 80001d4:	71fb      	strb	r3, [r7, #7]
 80001d6:	2202      	movs	r2, #2
 80001d8:	2100      	movs	r1, #0
 80001da:	203f      	movs	r0, #63	@ 0x3f
 80001dc:	f7ff ffb6 	bl	800014c <Send_cmd>
 80001e0:	20c8      	movs	r0, #200	@ 0xc8
 80001e2:	f001 f9a7 	bl	8001534 <HAL_Delay>
 80001e6:	79fb      	ldrb	r3, [r7, #7]
 80001e8:	461a      	mov	r2, r3
 80001ea:	2100      	movs	r1, #0
 80001ec:	2006      	movs	r0, #6
 80001ee:	f7ff ffad 	bl	800014c <Send_cmd>
 80001f2:	f44f 70fa 	mov.w	r0, #500	@ 0x1f4
 80001f6:	f001 f99d 	bl	8001534 <HAL_Delay>
 80001fa:	bf00      	nop
 80001fc:	3708      	adds	r7, #8
 80001fe:	46bd      	mov	sp, r7
 8000200:	bd80      	pop	{r7, pc}

08000202 <DF_Play>:
 8000202:	b580      	push	{r7, lr}
 8000204:	b082      	sub	sp, #8
 8000206:	af00      	add	r7, sp, #0
 8000208:	4603      	mov	r3, r0
 800020a:	71fb      	strb	r3, [r7, #7]
 800020c:	79fb      	ldrb	r3, [r7, #7]
 800020e:	461a      	mov	r2, r3
 8000210:	2100      	movs	r1, #0
 8000212:	2003      	movs	r0, #3
 8000214:	f7ff ff9a 	bl	800014c <Send_cmd>
 8000218:	20c8      	movs	r0, #200	@ 0xc8
 800021a:	f001 f98b 	bl	8001534 <HAL_Delay>
 800021e:	bf00      	nop
 8000220:	3708      	adds	r7, #8
 8000222:	46bd      	mov	sp, r7
 8000224:	bd80      	pop	{r7, pc}
	...

08000228 <HAL_CAN_RxFifo0MsgPendingCallback>:
/* USER CODE END PFP */

/* Private user code ---------------------------------------------------------*/
/* USER CODE BEGIN 0 */
void HAL_CAN_RxFifo0MsgPendingCallback(CAN_HandleTypeDef *hcan)
{
 8000228:	b580      	push	{r7, lr}
 800022a:	b086      	sub	sp, #24
 800022c:	af00      	add	r7, sp, #0
 800022e:	6078      	str	r0, [r7, #4]
	if (HAL_CAN_GetRxMessage(hcan, CAN_RX_FIFO0, &RxHeader, RxData) != HAL_OK)
 8000230:	4b9c      	ldr	r3, [pc, #624]	@ (80004a4 <HAL_CAN_RxFifo0MsgPendingCallback+0x27c>)
 8000232:	4a9d      	ldr	r2, [pc, #628]	@ (80004a8 <HAL_CAN_RxFifo0MsgPendingCallback+0x280>)
 8000234:	2100      	movs	r1, #0
 8000236:	6878      	ldr	r0, [r7, #4]
 8000238:	f001 fba8 	bl	800198c <HAL_CAN_GetRxMessage>
 800023c:	4603      	mov	r3, r0
 800023e:	2b00      	cmp	r3, #0
 8000240:	d001      	beq.n	8000246 <HAL_CAN_RxFifo0MsgPendingCallback+0x1e>
	{
		HAL_NVIC_SystemReset();
 8000242:	f002 f824 	bl	800228e <HAL_NVIC_SystemReset>
	}
	read_speed = true;
 8000246:	4b99      	ldr	r3, [pc, #612]	@ (80004ac <HAL_CAN_RxFifo0MsgPendingCallback+0x284>)
 8000248:	2201      	movs	r2, #1
 800024a:	701a      	strb	r2, [r3, #0]
	if (RxHeader.StdId == 0x501)
 800024c:	4b96      	ldr	r3, [pc, #600]	@ (80004a8 <HAL_CAN_RxFifo0MsgPendingCallback+0x280>)
 800024e:	681b      	ldr	r3, [r3, #0]
 8000250:	f240 5201 	movw	r2, #1281	@ 0x501
 8000254:	4293      	cmp	r3, r2
 8000256:	f040 816e 	bne.w	8000536 <HAL_CAN_RxFifo0MsgPendingCallback+0x30e>
	{
		if ((RxData[0] & 0x04) == 0x04)
 800025a:	4b92      	ldr	r3, [pc, #584]	@ (80004a4 <HAL_CAN_RxFifo0MsgPendingCallback+0x27c>)
 800025c:	781b      	ldrb	r3, [r3, #0]
 800025e:	f003 0304 	and.w	r3, r3, #4
 8000262:	2b00      	cmp	r3, #0
 8000264:	f000 815d 	beq.w	8000522 <HAL_CAN_RxFifo0MsgPendingCallback+0x2fa>
		{
			if (RxData[2] == 0x01)
 8000268:	4b8e      	ldr	r3, [pc, #568]	@ (80004a4 <HAL_CAN_RxFifo0MsgPendingCallback+0x27c>)
 800026a:	789b      	ldrb	r3, [r3, #2]
 800026c:	2b01      	cmp	r3, #1
 800026e:	d11f      	bne.n	80002b0 <HAL_CAN_RxFifo0MsgPendingCallback+0x88>
			{
				rxDataSave[2] = RxData[2];
 8000270:	4b8c      	ldr	r3, [pc, #560]	@ (80004a4 <HAL_CAN_RxFifo0MsgPendingCallback+0x27c>)
 8000272:	789a      	ldrb	r2, [r3, #2]
 8000274:	4b8e      	ldr	r3, [pc, #568]	@ (80004b0 <HAL_CAN_RxFifo0MsgPendingCallback+0x288>)
 8000276:	709a      	strb	r2, [r3, #2]
				rxDataSave[4] = 0;
 8000278:	4b8d      	ldr	r3, [pc, #564]	@ (80004b0 <HAL_CAN_RxFifo0MsgPendingCallback+0x288>)
 800027a:	2200      	movs	r2, #0
 800027c:	711a      	strb	r2, [r3, #4]
				rxDataSave[3] = 0;
 800027e:	4b8c      	ldr	r3, [pc, #560]	@ (80004b0 <HAL_CAN_RxFifo0MsgPendingCallback+0x288>)
 8000280:	2200      	movs	r2, #0
 8000282:	70da      	strb	r2, [r3, #3]
				for (uint8_t i=0; i<5; i++)
 8000284:	2300      	movs	r3, #0
 8000286:	75fb      	strb	r3, [r7, #23]
 8000288:	e00e      	b.n	80002a8 <HAL_CAN_RxFifo0MsgPendingCallback+0x80>
				{
					if (speakerState[i][0] == 0)
 800028a:	7dfb      	ldrb	r3, [r7, #23]
 800028c:	4a89      	ldr	r2, [pc, #548]	@ (80004b4 <HAL_CAN_RxFifo0MsgPendingCallback+0x28c>)
 800028e:	f812 3013 	ldrb.w	r3, [r2, r3, lsl #1]
 8000292:	2b00      	cmp	r3, #0
 8000294:	d105      	bne.n	80002a2 <HAL_CAN_RxFifo0MsgPendingCallback+0x7a>
					{
						speakerState[i][0] = speak_state_fire;
 8000296:	7dfb      	ldrb	r3, [r7, #23]
 8000298:	4a86      	ldr	r2, [pc, #536]	@ (80004b4 <HAL_CAN_RxFifo0MsgPendingCallback+0x28c>)
 800029a:	2101      	movs	r1, #1
 800029c:	f802 1013 	strb.w	r1, [r2, r3, lsl #1]
						return;
 80002a0:	e1ba      	b.n	8000618 <HAL_CAN_RxFifo0MsgPendingCallback+0x3f0>
				for (uint8_t i=0; i<5; i++)
 80002a2:	7dfb      	ldrb	r3, [r7, #23]
 80002a4:	3301      	adds	r3, #1
 80002a6:	75fb      	strb	r3, [r7, #23]
 80002a8:	7dfb      	ldrb	r3, [r7, #23]
 80002aa:	2b04      	cmp	r3, #4
 80002ac:	d9ed      	bls.n	800028a <HAL_CAN_RxFifo0MsgPendingCallback+0x62>
 80002ae:	e1b3      	b.n	8000618 <HAL_CAN_RxFifo0MsgPendingCallback+0x3f0>
					}
				}
			} else if (RxData[2] == 0x04)
 80002b0:	4b7c      	ldr	r3, [pc, #496]	@ (80004a4 <HAL_CAN_RxFifo0MsgPendingCallback+0x27c>)
 80002b2:	789b      	ldrb	r3, [r3, #2]
 80002b4:	2b04      	cmp	r3, #4
 80002b6:	d12f      	bne.n	8000318 <HAL_CAN_RxFifo0MsgPendingCallback+0xf0>
			{
				if (RxData[4] != rxDataSave[4])
 80002b8:	4b7a      	ldr	r3, [pc, #488]	@ (80004a4 <HAL_CAN_RxFifo0MsgPendingCallback+0x27c>)
 80002ba:	791a      	ldrb	r2, [r3, #4]
 80002bc:	4b7c      	ldr	r3, [pc, #496]	@ (80004b0 <HAL_CAN_RxFifo0MsgPendingCallback+0x288>)
 80002be:	791b      	ldrb	r3, [r3, #4]
 80002c0:	429a      	cmp	r2, r3
 80002c2:	f000 81a9 	beq.w	8000618 <HAL_CAN_RxFifo0MsgPendingCallback+0x3f0>
				{
					rxDataSave[2] = RxData[2];
 80002c6:	4b77      	ldr	r3, [pc, #476]	@ (80004a4 <HAL_CAN_RxFifo0MsgPendingCallback+0x27c>)
 80002c8:	789a      	ldrb	r2, [r3, #2]
 80002ca:	4b79      	ldr	r3, [pc, #484]	@ (80004b0 <HAL_CAN_RxFifo0MsgPendingCallback+0x288>)
 80002cc:	709a      	strb	r2, [r3, #2]
					rxDataSave[4] = RxData[4];
 80002ce:	4b75      	ldr	r3, [pc, #468]	@ (80004a4 <HAL_CAN_RxFifo0MsgPendingCallback+0x27c>)
 80002d0:	791a      	ldrb	r2, [r3, #4]
 80002d2:	4b77      	ldr	r3, [pc, #476]	@ (80004b0 <HAL_CAN_RxFifo0MsgPendingCallback+0x288>)
 80002d4:	711a      	strb	r2, [r3, #4]
					rxDataSave[3] = 0;
 80002d6:	4b76      	ldr	r3, [pc, #472]	@ (80004b0 <HAL_CAN_RxFifo0MsgPendingCallback+0x288>)
 80002d8:	2200      	movs	r2, #0
 80002da:	70da      	strb	r2, [r3, #3]
					for (uint8_t i=0; i<5; i++)
 80002dc:	2300      	movs	r3, #0
 80002de:	75bb      	strb	r3, [r7, #22]
 80002e0:	e016      	b.n	8000310 <HAL_CAN_RxFifo0MsgPendingCallback+0xe8>
					{
						if (speakerState[i][0] == 0)
 80002e2:	7dbb      	ldrb	r3, [r7, #22]
 80002e4:	4a73      	ldr	r2, [pc, #460]	@ (80004b4 <HAL_CAN_RxFifo0MsgPendingCallback+0x28c>)
 80002e6:	f812 3013 	ldrb.w	r3, [r2, r3, lsl #1]
 80002ea:	2b00      	cmp	r3, #0
 80002ec:	d10d      	bne.n	800030a <HAL_CAN_RxFifo0MsgPendingCallback+0xe2>
						{
							speakerState[i][0] = speak_state_door;
 80002ee:	7dbb      	ldrb	r3, [r7, #22]
 80002f0:	4a70      	ldr	r2, [pc, #448]	@ (80004b4 <HAL_CAN_RxFifo0MsgPendingCallback+0x28c>)
 80002f2:	2104      	movs	r1, #4
 80002f4:	f802 1013 	strb.w	r1, [r2, r3, lsl #1]
							speakerState[i][1] = RxData[4];
 80002f8:	7dbb      	ldrb	r3, [r7, #22]
 80002fa:	4a6a      	ldr	r2, [pc, #424]	@ (80004a4 <HAL_CAN_RxFifo0MsgPendingCallback+0x27c>)
 80002fc:	7911      	ldrb	r1, [r2, #4]
 80002fe:	4a6d      	ldr	r2, [pc, #436]	@ (80004b4 <HAL_CAN_RxFifo0MsgPendingCallback+0x28c>)
 8000300:	005b      	lsls	r3, r3, #1
 8000302:	4413      	add	r3, r2
 8000304:	460a      	mov	r2, r1
 8000306:	705a      	strb	r2, [r3, #1]
							return;
 8000308:	e186      	b.n	8000618 <HAL_CAN_RxFifo0MsgPendingCallback+0x3f0>
					for (uint8_t i=0; i<5; i++)
 800030a:	7dbb      	ldrb	r3, [r7, #22]
 800030c:	3301      	adds	r3, #1
 800030e:	75bb      	strb	r3, [r7, #22]
 8000310:	7dbb      	ldrb	r3, [r7, #22]
 8000312:	2b04      	cmp	r3, #4
 8000314:	d9e5      	bls.n	80002e2 <HAL_CAN_RxFifo0MsgPendingCallback+0xba>
 8000316:	e17f      	b.n	8000618 <HAL_CAN_RxFifo0MsgPendingCallback+0x3f0>
						}
					}
				}
			} else if (RxData[2] == 0x05)
 8000318:	4b62      	ldr	r3, [pc, #392]	@ (80004a4 <HAL_CAN_RxFifo0MsgPendingCallback+0x27c>)
 800031a:	789b      	ldrb	r3, [r3, #2]
 800031c:	2b05      	cmp	r3, #5
 800031e:	d11f      	bne.n	8000360 <HAL_CAN_RxFifo0MsgPendingCallback+0x138>
			{
				rxDataSave[2] = RxData[2];
 8000320:	4b60      	ldr	r3, [pc, #384]	@ (80004a4 <HAL_CAN_RxFifo0MsgPendingCallback+0x27c>)
 8000322:	789a      	ldrb	r2, [r3, #2]
 8000324:	4b62      	ldr	r3, [pc, #392]	@ (80004b0 <HAL_CAN_RxFifo0MsgPendingCallback+0x288>)
 8000326:	709a      	strb	r2, [r3, #2]
				rxDataSave[4] = 0;
 8000328:	4b61      	ldr	r3, [pc, #388]	@ (80004b0 <HAL_CAN_RxFifo0MsgPendingCallback+0x288>)
 800032a:	2200      	movs	r2, #0
 800032c:	711a      	strb	r2, [r3, #4]
				rxDataSave[3] = 0;
 800032e:	4b60      	ldr	r3, [pc, #384]	@ (80004b0 <HAL_CAN_RxFifo0MsgPendingCallback+0x288>)
 8000330:	2200      	movs	r2, #0
 8000332:	70da      	strb	r2, [r3, #3]
				for (uint8_t i=0; i<5; i++)
 8000334:	2300      	movs	r3, #0
 8000336:	757b      	strb	r3, [r7, #21]
 8000338:	e00e      	b.n	8000358 <HAL_CAN_RxFifo0MsgPendingCallback+0x130>
				{
					if (speakerState[i][0] == 0)
 800033a:	7d7b      	ldrb	r3, [r7, #21]
 800033c:	4a5d      	ldr	r2, [pc, #372]	@ (80004b4 <HAL_CAN_RxFifo0MsgPendingCallback+0x28c>)
 800033e:	f812 3013 	ldrb.w	r3, [r2, r3, lsl #1]
 8000342:	2b00      	cmp	r3, #0
 8000344:	d105      	bne.n	8000352 <HAL_CAN_RxFifo0MsgPendingCallback+0x12a>
					{
						speakerState[i][0] = speak_state_overload;
 8000346:	7d7b      	ldrb	r3, [r7, #21]
 8000348:	4a5a      	ldr	r2, [pc, #360]	@ (80004b4 <HAL_CAN_RxFifo0MsgPendingCallback+0x28c>)
 800034a:	2105      	movs	r1, #5
 800034c:	f802 1013 	strb.w	r1, [r2, r3, lsl #1]
						return;
 8000350:	e162      	b.n	8000618 <HAL_CAN_RxFifo0MsgPendingCallback+0x3f0>
				for (uint8_t i=0; i<5; i++)
 8000352:	7d7b      	ldrb	r3, [r7, #21]
 8000354:	3301      	adds	r3, #1
 8000356:	757b      	strb	r3, [r7, #21]
 8000358:	7d7b      	ldrb	r3, [r7, #21]
 800035a:	2b04      	cmp	r3, #4
 800035c:	d9ed      	bls.n	800033a <HAL_CAN_RxFifo0MsgPendingCallback+0x112>
 800035e:	e15b      	b.n	8000618 <HAL_CAN_RxFifo0MsgPendingCallback+0x3f0>
					}
				}
			} else if (RxData[2] == 0x06)
 8000360:	4b50      	ldr	r3, [pc, #320]	@ (80004a4 <HAL_CAN_RxFifo0MsgPendingCallback+0x27c>)
 8000362:	789b      	ldrb	r3, [r3, #2]
 8000364:	2b06      	cmp	r3, #6
 8000366:	d11f      	bne.n	80003a8 <HAL_CAN_RxFifo0MsgPendingCallback+0x180>
			{
				rxDataSave[2] = RxData[2];
 8000368:	4b4e      	ldr	r3, [pc, #312]	@ (80004a4 <HAL_CAN_RxFifo0MsgPendingCallback+0x27c>)
 800036a:	789a      	ldrb	r2, [r3, #2]
 800036c:	4b50      	ldr	r3, [pc, #320]	@ (80004b0 <HAL_CAN_RxFifo0MsgPendingCallback+0x288>)
 800036e:	709a      	strb	r2, [r3, #2]
				rxDataSave[4] = 0;
 8000370:	4b4f      	ldr	r3, [pc, #316]	@ (80004b0 <HAL_CAN_RxFifo0MsgPendingCallback+0x288>)
 8000372:	2200      	movs	r2, #0
 8000374:	711a      	strb	r2, [r3, #4]
				rxDataSave[3] = 0;
 8000376:	4b4e      	ldr	r3, [pc, #312]	@ (80004b0 <HAL_CAN_RxFifo0MsgPendingCallback+0x288>)
 8000378:	2200      	movs	r2, #0
 800037a:	70da      	strb	r2, [r3, #3]
				for (uint8_t i=0; i<5; i++)
 800037c:	2300      	movs	r3, #0
 800037e:	753b      	strb	r3, [r7, #20]
 8000380:	e00e      	b.n	80003a0 <HAL_CAN_RxFifo0MsgPendingCallback+0x178>
				{
					if (speakerState[i][0] == 0)
 8000382:	7d3b      	ldrb	r3, [r7, #20]
 8000384:	4a4b      	ldr	r2, [pc, #300]	@ (80004b4 <HAL_CAN_RxFifo0MsgPendingCallback+0x28c>)
 8000386:	f812 3013 	ldrb.w	r3, [r2, r3, lsl #1]
 800038a:	2b00      	cmp	r3, #0
 800038c:	d105      	bne.n	800039a <HAL_CAN_RxFifo0MsgPendingCallback+0x172>
					{
						speakerState[i][0] = speak_state_recue;
 800038e:	7d3b      	ldrb	r3, [r7, #20]
 8000390:	4a48      	ldr	r2, [pc, #288]	@ (80004b4 <HAL_CAN_RxFifo0MsgPendingCallback+0x28c>)
 8000392:	2106      	movs	r1, #6
 8000394:	f802 1013 	strb.w	r1, [r2, r3, lsl #1]
						return;
 8000398:	e13e      	b.n	8000618 <HAL_CAN_RxFifo0MsgPendingCallback+0x3f0>
				for (uint8_t i=0; i<5; i++)
 800039a:	7d3b      	ldrb	r3, [r7, #20]
 800039c:	3301      	adds	r3, #1
 800039e:	753b      	strb	r3, [r7, #20]
 80003a0:	7d3b      	ldrb	r3, [r7, #20]
 80003a2:	2b04      	cmp	r3, #4
 80003a4:	d9ed      	bls.n	8000382 <HAL_CAN_RxFifo0MsgPendingCallback+0x15a>
 80003a6:	e137      	b.n	8000618 <HAL_CAN_RxFifo0MsgPendingCallback+0x3f0>
					}
				}
			} else if (RxData[2] == 0x07)
 80003a8:	4b3e      	ldr	r3, [pc, #248]	@ (80004a4 <HAL_CAN_RxFifo0MsgPendingCallback+0x27c>)
 80003aa:	789b      	ldrb	r3, [r3, #2]
 80003ac:	2b07      	cmp	r3, #7
 80003ae:	d126      	bne.n	80003fe <HAL_CAN_RxFifo0MsgPendingCallback+0x1d6>
			{
				if (RxData[2] != rxDataSave[2])
 80003b0:	4b3c      	ldr	r3, [pc, #240]	@ (80004a4 <HAL_CAN_RxFifo0MsgPendingCallback+0x27c>)
 80003b2:	789a      	ldrb	r2, [r3, #2]
 80003b4:	4b3e      	ldr	r3, [pc, #248]	@ (80004b0 <HAL_CAN_RxFifo0MsgPendingCallback+0x288>)
 80003b6:	789b      	ldrb	r3, [r3, #2]
 80003b8:	429a      	cmp	r2, r3
 80003ba:	f000 812d 	beq.w	8000618 <HAL_CAN_RxFifo0MsgPendingCallback+0x3f0>
				{
					rxDataSave[2] = RxData[2];
 80003be:	4b39      	ldr	r3, [pc, #228]	@ (80004a4 <HAL_CAN_RxFifo0MsgPendingCallback+0x27c>)
 80003c0:	789a      	ldrb	r2, [r3, #2]
 80003c2:	4b3b      	ldr	r3, [pc, #236]	@ (80004b0 <HAL_CAN_RxFifo0MsgPendingCallback+0x288>)
 80003c4:	709a      	strb	r2, [r3, #2]
					rxDataSave[4] = 0;
 80003c6:	4b3a      	ldr	r3, [pc, #232]	@ (80004b0 <HAL_CAN_RxFifo0MsgPendingCallback+0x288>)
 80003c8:	2200      	movs	r2, #0
 80003ca:	711a      	strb	r2, [r3, #4]
					rxDataSave[3] = 0;
 80003cc:	4b38      	ldr	r3, [pc, #224]	@ (80004b0 <HAL_CAN_RxFifo0MsgPendingCallback+0x288>)
 80003ce:	2200      	movs	r2, #0
 80003d0:	70da      	strb	r2, [r3, #3]
					for (uint8_t i=0; i<5; i++)
 80003d2:	2300      	movs	r3, #0
 80003d4:	74fb      	strb	r3, [r7, #19]
 80003d6:	e00e      	b.n	80003f6 <HAL_CAN_RxFifo0MsgPendingCallback+0x1ce>
					{
						if (speakerState[i][0] == 0)
 80003d8:	7cfb      	ldrb	r3, [r7, #19]
 80003da:	4a36      	ldr	r2, [pc, #216]	@ (80004b4 <HAL_CAN_RxFifo0MsgPendingCallback+0x28c>)
 80003dc:	f812 3013 	ldrb.w	r3, [r2, r3, lsl #1]
 80003e0:	2b00      	cmp	r3, #0
 80003e2:	d105      	bne.n	80003f0 <HAL_CAN_RxFifo0MsgPendingCallback+0x1c8>
						{
							speakerState[i][0] = speak_state_floor;
 80003e4:	7cfb      	ldrb	r3, [r7, #19]
 80003e6:	4a33      	ldr	r2, [pc, #204]	@ (80004b4 <HAL_CAN_RxFifo0MsgPendingCallback+0x28c>)
 80003e8:	2107      	movs	r1, #7
 80003ea:	f802 1013 	strb.w	r1, [r2, r3, lsl #1]
							return;
 80003ee:	e113      	b.n	8000618 <HAL_CAN_RxFifo0MsgPendingCallback+0x3f0>
					for (uint8_t i=0; i<5; i++)
 80003f0:	7cfb      	ldrb	r3, [r7, #19]
 80003f2:	3301      	adds	r3, #1
 80003f4:	74fb      	strb	r3, [r7, #19]
 80003f6:	7cfb      	ldrb	r3, [r7, #19]
 80003f8:	2b04      	cmp	r3, #4
 80003fa:	d9ed      	bls.n	80003d8 <HAL_CAN_RxFifo0MsgPendingCallback+0x1b0>
 80003fc:	e10c      	b.n	8000618 <HAL_CAN_RxFifo0MsgPendingCallback+0x3f0>
						}
					}
				}
			} else if (RxData[2] == 0x08 || RxData[2] == 0x0A)
 80003fe:	4b29      	ldr	r3, [pc, #164]	@ (80004a4 <HAL_CAN_RxFifo0MsgPendingCallback+0x27c>)
 8000400:	789b      	ldrb	r3, [r3, #2]
 8000402:	2b08      	cmp	r3, #8
 8000404:	d003      	beq.n	800040e <HAL_CAN_RxFifo0MsgPendingCallback+0x1e6>
 8000406:	4b27      	ldr	r3, [pc, #156]	@ (80004a4 <HAL_CAN_RxFifo0MsgPendingCallback+0x27c>)
 8000408:	789b      	ldrb	r3, [r3, #2]
 800040a:	2b0a      	cmp	r3, #10
 800040c:	d11f      	bne.n	800044e <HAL_CAN_RxFifo0MsgPendingCallback+0x226>
			{
				rxDataSave[2] = RxData[2];
 800040e:	4b25      	ldr	r3, [pc, #148]	@ (80004a4 <HAL_CAN_RxFifo0MsgPendingCallback+0x27c>)
 8000410:	789a      	ldrb	r2, [r3, #2]
 8000412:	4b27      	ldr	r3, [pc, #156]	@ (80004b0 <HAL_CAN_RxFifo0MsgPendingCallback+0x288>)
 8000414:	709a      	strb	r2, [r3, #2]
				rxDataSave[4] = 0;
 8000416:	4b26      	ldr	r3, [pc, #152]	@ (80004b0 <HAL_CAN_RxFifo0MsgPendingCallback+0x288>)
 8000418:	2200      	movs	r2, #0
 800041a:	711a      	strb	r2, [r3, #4]
				rxDataSave[3] = 0;
 800041c:	4b24      	ldr	r3, [pc, #144]	@ (80004b0 <HAL_CAN_RxFifo0MsgPendingCallback+0x288>)
 800041e:	2200      	movs	r2, #0
 8000420:	70da      	strb	r2, [r3, #3]
				for (uint8_t i=0; i<5; i++)
 8000422:	2300      	movs	r3, #0
 8000424:	74bb      	strb	r3, [r7, #18]
 8000426:	e00e      	b.n	8000446 <HAL_CAN_RxFifo0MsgPendingCallback+0x21e>
				{
					if (speakerState[i][0] == 0)
 8000428:	7cbb      	ldrb	r3, [r7, #18]
 800042a:	4a22      	ldr	r2, [pc, #136]	@ (80004b4 <HAL_CAN_RxFifo0MsgPendingCallback+0x28c>)
 800042c:	f812 3013 	ldrb.w	r3, [r2, r3, lsl #1]
 8000430:	2b00      	cmp	r3, #0
 8000432:	d105      	bne.n	8000440 <HAL_CAN_RxFifo0MsgPendingCallback+0x218>
					{
						speakerState[i][0] = speak_state_fault;
 8000434:	7cbb      	ldrb	r3, [r7, #18]
 8000436:	4a1f      	ldr	r2, [pc, #124]	@ (80004b4 <HAL_CAN_RxFifo0MsgPendingCallback+0x28c>)
 8000438:	2108      	movs	r1, #8
 800043a:	f802 1013 	strb.w	r1, [r2, r3, lsl #1]
						return;
 800043e:	e0eb      	b.n	8000618 <HAL_CAN_RxFifo0MsgPendingCallback+0x3f0>
				for (uint8_t i=0; i<5; i++)
 8000440:	7cbb      	ldrb	r3, [r7, #18]
 8000442:	3301      	adds	r3, #1
 8000444:	74bb      	strb	r3, [r7, #18]
 8000446:	7cbb      	ldrb	r3, [r7, #18]
 8000448:	2b04      	cmp	r3, #4
 800044a:	d9ed      	bls.n	8000428 <HAL_CAN_RxFifo0MsgPendingCallback+0x200>
 800044c:	e0e4      	b.n	8000618 <HAL_CAN_RxFifo0MsgPendingCallback+0x3f0>
					}
				}
			} else if (RxData[2] == 0x09)
 800044e:	4b15      	ldr	r3, [pc, #84]	@ (80004a4 <HAL_CAN_RxFifo0MsgPendingCallback+0x27c>)
 8000450:	789b      	ldrb	r3, [r3, #2]
 8000452:	2b09      	cmp	r3, #9
 8000454:	d130      	bne.n	80004b8 <HAL_CAN_RxFifo0MsgPendingCallback+0x290>
			{
				if (RxData[2] != rxDataSave[2])
 8000456:	4b13      	ldr	r3, [pc, #76]	@ (80004a4 <HAL_CAN_RxFifo0MsgPendingCallback+0x27c>)
 8000458:	789a      	ldrb	r2, [r3, #2]
 800045a:	4b15      	ldr	r3, [pc, #84]	@ (80004b0 <HAL_CAN_RxFifo0MsgPendingCallback+0x288>)
 800045c:	789b      	ldrb	r3, [r3, #2]
 800045e:	429a      	cmp	r2, r3
 8000460:	f000 80da 	beq.w	8000618 <HAL_CAN_RxFifo0MsgPendingCallback+0x3f0>
				{
					rxDataSave[2] = RxData[2];
 8000464:	4b0f      	ldr	r3, [pc, #60]	@ (80004a4 <HAL_CAN_RxFifo0MsgPendingCallback+0x27c>)
 8000466:	789a      	ldrb	r2, [r3, #2]
 8000468:	4b11      	ldr	r3, [pc, #68]	@ (80004b0 <HAL_CAN_RxFifo0MsgPendingCallback+0x288>)
 800046a:	709a      	strb	r2, [r3, #2]
					rxDataSave[4] = 0;
 800046c:	4b10      	ldr	r3, [pc, #64]	@ (80004b0 <HAL_CAN_RxFifo0MsgPendingCallback+0x288>)
 800046e:	2200      	movs	r2, #0
 8000470:	711a      	strb	r2, [r3, #4]
					rxDataSave[3] = 0;
 8000472:	4b0f      	ldr	r3, [pc, #60]	@ (80004b0 <HAL_CAN_RxFifo0MsgPendingCallback+0x288>)
 8000474:	2200      	movs	r2, #0
 8000476:	70da      	strb	r2, [r3, #3]
					for (uint8_t i=0; i<5; i++)
 8000478:	2300      	movs	r3, #0
 800047a:	747b      	strb	r3, [r7, #17]
 800047c:	e00e      	b.n	800049c <HAL_CAN_RxFifo0MsgPendingCallback+0x274>
					{
						if (speakerState[i][0] == 0)
 800047e:	7c7b      	ldrb	r3, [r7, #17]
 8000480:	4a0c      	ldr	r2, [pc, #48]	@ (80004b4 <HAL_CAN_RxFifo0MsgPendingCallback+0x28c>)
 8000482:	f812 3013 	ldrb.w	r3, [r2, r3, lsl #1]
 8000486:	2b00      	cmp	r3, #0
 8000488:	d105      	bne.n	8000496 <HAL_CAN_RxFifo0MsgPendingCallback+0x26e>
						{
							speakerState[i][0] = speak_state_VIP;
 800048a:	7c7b      	ldrb	r3, [r7, #17]
 800048c:	4a09      	ldr	r2, [pc, #36]	@ (80004b4 <HAL_CAN_RxFifo0MsgPendingCallback+0x28c>)
 800048e:	2109      	movs	r1, #9
 8000490:	f802 1013 	strb.w	r1, [r2, r3, lsl #1]
							return;
 8000494:	e0c0      	b.n	8000618 <HAL_CAN_RxFifo0MsgPendingCallback+0x3f0>
					for (uint8_t i=0; i<5; i++)
 8000496:	7c7b      	ldrb	r3, [r7, #17]
 8000498:	3301      	adds	r3, #1
 800049a:	747b      	strb	r3, [r7, #17]
 800049c:	7c7b      	ldrb	r3, [r7, #17]
 800049e:	2b04      	cmp	r3, #4
 80004a0:	d9ed      	bls.n	800047e <HAL_CAN_RxFifo0MsgPendingCallback+0x256>
 80004a2:	e0b9      	b.n	8000618 <HAL_CAN_RxFifo0MsgPendingCallback+0x3f0>
 80004a4:	2000014c 	.word	0x2000014c
 80004a8:	20000130 	.word	0x20000130
 80004ac:	200001b8 	.word	0x200001b8
 80004b0:	20000154 	.word	0x20000154
 80004b4:	200001a8 	.word	0x200001a8
						}
					}
				}
			} else if (RxData[2] == 0x0B)
 80004b8:	4b59      	ldr	r3, [pc, #356]	@ (8000620 <HAL_CAN_RxFifo0MsgPendingCallback+0x3f8>)
 80004ba:	789b      	ldrb	r3, [r3, #2]
 80004bc:	2b0b      	cmp	r3, #11
 80004be:	f040 80ab 	bne.w	8000618 <HAL_CAN_RxFifo0MsgPendingCallback+0x3f0>
			{
				if (RxData[3] != rxDataSave[3])
 80004c2:	4b57      	ldr	r3, [pc, #348]	@ (8000620 <HAL_CAN_RxFifo0MsgPendingCallback+0x3f8>)
 80004c4:	78da      	ldrb	r2, [r3, #3]
 80004c6:	4b57      	ldr	r3, [pc, #348]	@ (8000624 <HAL_CAN_RxFifo0MsgPendingCallback+0x3fc>)
 80004c8:	78db      	ldrb	r3, [r3, #3]
 80004ca:	429a      	cmp	r2, r3
 80004cc:	f000 80a4 	beq.w	8000618 <HAL_CAN_RxFifo0MsgPendingCallback+0x3f0>
				{
					rxDataSave[2] = RxData[2];
 80004d0:	4b53      	ldr	r3, [pc, #332]	@ (8000620 <HAL_CAN_RxFifo0MsgPendingCallback+0x3f8>)
 80004d2:	789a      	ldrb	r2, [r3, #2]
 80004d4:	4b53      	ldr	r3, [pc, #332]	@ (8000624 <HAL_CAN_RxFifo0MsgPendingCallback+0x3fc>)
 80004d6:	709a      	strb	r2, [r3, #2]
					rxDataSave[3] = RxData[3];
 80004d8:	4b51      	ldr	r3, [pc, #324]	@ (8000620 <HAL_CAN_RxFifo0MsgPendingCallback+0x3f8>)
 80004da:	78da      	ldrb	r2, [r3, #3]
 80004dc:	4b51      	ldr	r3, [pc, #324]	@ (8000624 <HAL_CAN_RxFifo0MsgPendingCallback+0x3fc>)
 80004de:	70da      	strb	r2, [r3, #3]
					rxDataSave[4] = 0;
 80004e0:	4b50      	ldr	r3, [pc, #320]	@ (8000624 <HAL_CAN_RxFifo0MsgPendingCallback+0x3fc>)
 80004e2:	2200      	movs	r2, #0
 80004e4:	711a      	strb	r2, [r3, #4]
					for (uint8_t i=0; i<5; i++)
 80004e6:	2300      	movs	r3, #0
 80004e8:	743b      	strb	r3, [r7, #16]
 80004ea:	e016      	b.n	800051a <HAL_CAN_RxFifo0MsgPendingCallback+0x2f2>
					{
						if (speakerState[i][0] == 0)
 80004ec:	7c3b      	ldrb	r3, [r7, #16]
 80004ee:	4a4e      	ldr	r2, [pc, #312]	@ (8000628 <HAL_CAN_RxFifo0MsgPendingCallback+0x400>)
 80004f0:	f812 3013 	ldrb.w	r3, [r2, r3, lsl #1]
 80004f4:	2b00      	cmp	r3, #0
 80004f6:	d10d      	bne.n	8000514 <HAL_CAN_RxFifo0MsgPendingCallback+0x2ec>
						{
							speakerState[i][0] = speak_state_direction;
 80004f8:	7c3b      	ldrb	r3, [r7, #16]
 80004fa:	4a4b      	ldr	r2, [pc, #300]	@ (8000628 <HAL_CAN_RxFifo0MsgPendingCallback+0x400>)
 80004fc:	210b      	movs	r1, #11
 80004fe:	f802 1013 	strb.w	r1, [r2, r3, lsl #1]
							speakerState[i][1] = RxData[3];
 8000502:	7c3b      	ldrb	r3, [r7, #16]
 8000504:	4a46      	ldr	r2, [pc, #280]	@ (8000620 <HAL_CAN_RxFifo0MsgPendingCallback+0x3f8>)
 8000506:	78d1      	ldrb	r1, [r2, #3]
 8000508:	4a47      	ldr	r2, [pc, #284]	@ (8000628 <HAL_CAN_RxFifo0MsgPendingCallback+0x400>)
 800050a:	005b      	lsls	r3, r3, #1
 800050c:	4413      	add	r3, r2
 800050e:	460a      	mov	r2, r1
 8000510:	705a      	strb	r2, [r3, #1]
							return;
 8000512:	e081      	b.n	8000618 <HAL_CAN_RxFifo0MsgPendingCallback+0x3f0>
					for (uint8_t i=0; i<5; i++)
 8000514:	7c3b      	ldrb	r3, [r7, #16]
 8000516:	3301      	adds	r3, #1
 8000518:	743b      	strb	r3, [r7, #16]
 800051a:	7c3b      	ldrb	r3, [r7, #16]
 800051c:	2b04      	cmp	r3, #4
 800051e:	d9e5      	bls.n	80004ec <HAL_CAN_RxFifo0MsgPendingCallback+0x2c4>
 8000520:	e07a      	b.n	8000618 <HAL_CAN_RxFifo0MsgPendingCallback+0x3f0>
					}
				}
			}
		} else
		{
			rxDataSave[2] = 0;
 8000522:	4b40      	ldr	r3, [pc, #256]	@ (8000624 <HAL_CAN_RxFifo0MsgPendingCallback+0x3fc>)
 8000524:	2200      	movs	r2, #0
 8000526:	709a      	strb	r2, [r3, #2]
			rxDataSave[3] = 0;
 8000528:	4b3e      	ldr	r3, [pc, #248]	@ (8000624 <HAL_CAN_RxFifo0MsgPendingCallback+0x3fc>)
 800052a:	2200      	movs	r2, #0
 800052c:	70da      	strb	r2, [r3, #3]
			rxDataSave[4] = 0;
 800052e:	4b3d      	ldr	r3, [pc, #244]	@ (8000624 <HAL_CAN_RxFifo0MsgPendingCallback+0x3fc>)
 8000530:	2200      	movs	r2, #0
 8000532:	711a      	strb	r2, [r3, #4]
 8000534:	e070      	b.n	8000618 <HAL_CAN_RxFifo0MsgPendingCallback+0x3f0>
		}
	} else if (RxHeader.StdId == 0x502)
 8000536:	4b3d      	ldr	r3, [pc, #244]	@ (800062c <HAL_CAN_RxFifo0MsgPendingCallback+0x404>)
 8000538:	681b      	ldr	r3, [r3, #0]
 800053a:	f240 5202 	movw	r2, #1282	@ 0x502
 800053e:	4293      	cmp	r3, r2
 8000540:	d108      	bne.n	8000554 <HAL_CAN_RxFifo0MsgPendingCallback+0x32c>
	{
		oneFloor = RxData[2];
 8000542:	4b37      	ldr	r3, [pc, #220]	@ (8000620 <HAL_CAN_RxFifo0MsgPendingCallback+0x3f8>)
 8000544:	789a      	ldrb	r2, [r3, #2]
 8000546:	4b3a      	ldr	r3, [pc, #232]	@ (8000630 <HAL_CAN_RxFifo0MsgPendingCallback+0x408>)
 8000548:	701a      	strb	r2, [r3, #0]
		tenFloor = RxData[1];
 800054a:	4b35      	ldr	r3, [pc, #212]	@ (8000620 <HAL_CAN_RxFifo0MsgPendingCallback+0x3f8>)
 800054c:	785a      	ldrb	r2, [r3, #1]
 800054e:	4b39      	ldr	r3, [pc, #228]	@ (8000634 <HAL_CAN_RxFifo0MsgPendingCallback+0x40c>)
 8000550:	701a      	strb	r2, [r3, #0]
 8000552:	e061      	b.n	8000618 <HAL_CAN_RxFifo0MsgPendingCallback+0x3f0>
	} else if (RxHeader.StdId == 0x503)
 8000554:	4b35      	ldr	r3, [pc, #212]	@ (800062c <HAL_CAN_RxFifo0MsgPendingCallback+0x404>)
 8000556:	681b      	ldr	r3, [r3, #0]
 8000558:	f240 5203 	movw	r2, #1283	@ 0x503
 800055c:	4293      	cmp	r3, r2
 800055e:	d15b      	bne.n	8000618 <HAL_CAN_RxFifo0MsgPendingCallback+0x3f0>
	{
		if ((RxData[0] & 0x01) ==  0x01)
 8000560:	4b2f      	ldr	r3, [pc, #188]	@ (8000620 <HAL_CAN_RxFifo0MsgPendingCallback+0x3f8>)
 8000562:	781b      	ldrb	r3, [r3, #0]
 8000564:	f003 0301 	and.w	r3, r3, #1
 8000568:	2b00      	cmp	r3, #0
 800056a:	d055      	beq.n	8000618 <HAL_CAN_RxFifo0MsgPendingCallback+0x3f0>
		{
			if (RxData[0] != button[0] || RxData[2] != button[1] || RxData[3] != button[2])
 800056c:	4b2c      	ldr	r3, [pc, #176]	@ (8000620 <HAL_CAN_RxFifo0MsgPendingCallback+0x3f8>)
 800056e:	781a      	ldrb	r2, [r3, #0]
 8000570:	4b31      	ldr	r3, [pc, #196]	@ (8000638 <HAL_CAN_RxFifo0MsgPendingCallback+0x410>)
 8000572:	781b      	ldrb	r3, [r3, #0]
 8000574:	429a      	cmp	r2, r3
 8000576:	d10b      	bne.n	8000590 <HAL_CAN_RxFifo0MsgPendingCallback+0x368>
 8000578:	4b29      	ldr	r3, [pc, #164]	@ (8000620 <HAL_CAN_RxFifo0MsgPendingCallback+0x3f8>)
 800057a:	789a      	ldrb	r2, [r3, #2]
 800057c:	4b2e      	ldr	r3, [pc, #184]	@ (8000638 <HAL_CAN_RxFifo0MsgPendingCallback+0x410>)
 800057e:	785b      	ldrb	r3, [r3, #1]
 8000580:	429a      	cmp	r2, r3
 8000582:	d105      	bne.n	8000590 <HAL_CAN_RxFifo0MsgPendingCallback+0x368>
 8000584:	4b26      	ldr	r3, [pc, #152]	@ (8000620 <HAL_CAN_RxFifo0MsgPendingCallback+0x3f8>)
 8000586:	78da      	ldrb	r2, [r3, #3]
 8000588:	4b2b      	ldr	r3, [pc, #172]	@ (8000638 <HAL_CAN_RxFifo0MsgPendingCallback+0x410>)
 800058a:	789b      	ldrb	r3, [r3, #2]
 800058c:	429a      	cmp	r2, r3
 800058e:	d043      	beq.n	8000618 <HAL_CAN_RxFifo0MsgPendingCallback+0x3f0>
			{
				button[0] = RxData[0];
 8000590:	4b23      	ldr	r3, [pc, #140]	@ (8000620 <HAL_CAN_RxFifo0MsgPendingCallback+0x3f8>)
 8000592:	781a      	ldrb	r2, [r3, #0]
 8000594:	4b28      	ldr	r3, [pc, #160]	@ (8000638 <HAL_CAN_RxFifo0MsgPendingCallback+0x410>)
 8000596:	701a      	strb	r2, [r3, #0]
				button[1] = RxData[2];
 8000598:	4b21      	ldr	r3, [pc, #132]	@ (8000620 <HAL_CAN_RxFifo0MsgPendingCallback+0x3f8>)
 800059a:	789a      	ldrb	r2, [r3, #2]
 800059c:	4b26      	ldr	r3, [pc, #152]	@ (8000638 <HAL_CAN_RxFifo0MsgPendingCallback+0x410>)
 800059e:	705a      	strb	r2, [r3, #1]
				button[2] = RxData[3];
 80005a0:	4b1f      	ldr	r3, [pc, #124]	@ (8000620 <HAL_CAN_RxFifo0MsgPendingCallback+0x3f8>)
 80005a2:	78da      	ldrb	r2, [r3, #3]
 80005a4:	4b24      	ldr	r3, [pc, #144]	@ (8000638 <HAL_CAN_RxFifo0MsgPendingCallback+0x410>)
 80005a6:	709a      	strb	r2, [r3, #2]
				for (uint8_t i=0; i<5; i++)
 80005a8:	2300      	movs	r3, #0
 80005aa:	73fb      	strb	r3, [r7, #15]
 80005ac:	e031      	b.n	8000612 <HAL_CAN_RxFifo0MsgPendingCallback+0x3ea>
				{
					if (speakerButton[i][0] == 0)
 80005ae:	7bfb      	ldrb	r3, [r7, #15]
 80005b0:	4a22      	ldr	r2, [pc, #136]	@ (800063c <HAL_CAN_RxFifo0MsgPendingCallback+0x414>)
 80005b2:	f812 3023 	ldrb.w	r3, [r2, r3, lsl #2]
 80005b6:	2b00      	cmp	r3, #0
 80005b8:	d128      	bne.n	800060c <HAL_CAN_RxFifo0MsgPendingCallback+0x3e4>
					{
						speakerButton[i][0] = 1;
 80005ba:	7bfb      	ldrb	r3, [r7, #15]
 80005bc:	4a1f      	ldr	r2, [pc, #124]	@ (800063c <HAL_CAN_RxFifo0MsgPendingCallback+0x414>)
 80005be:	2101      	movs	r1, #1
 80005c0:	f802 1023 	strb.w	r1, [r2, r3, lsl #2]
						if ((RxData[0] & 0x04) ==  0x04)
 80005c4:	4b16      	ldr	r3, [pc, #88]	@ (8000620 <HAL_CAN_RxFifo0MsgPendingCallback+0x3f8>)
 80005c6:	781b      	ldrb	r3, [r3, #0]
 80005c8:	f003 0304 	and.w	r3, r3, #4
 80005cc:	2b00      	cmp	r3, #0
 80005ce:	d006      	beq.n	80005de <HAL_CAN_RxFifo0MsgPendingCallback+0x3b6>
						{
							speakerButton[i][1] = 1;
 80005d0:	7bfb      	ldrb	r3, [r7, #15]
 80005d2:	4a1a      	ldr	r2, [pc, #104]	@ (800063c <HAL_CAN_RxFifo0MsgPendingCallback+0x414>)
 80005d4:	009b      	lsls	r3, r3, #2
 80005d6:	4413      	add	r3, r2
 80005d8:	2201      	movs	r2, #1
 80005da:	705a      	strb	r2, [r3, #1]
 80005dc:	e005      	b.n	80005ea <HAL_CAN_RxFifo0MsgPendingCallback+0x3c2>
						} else
						{
							speakerButton[i][1] = 0;
 80005de:	7bfb      	ldrb	r3, [r7, #15]
 80005e0:	4a16      	ldr	r2, [pc, #88]	@ (800063c <HAL_CAN_RxFifo0MsgPendingCallback+0x414>)
 80005e2:	009b      	lsls	r3, r3, #2
 80005e4:	4413      	add	r3, r2
 80005e6:	2200      	movs	r2, #0
 80005e8:	705a      	strb	r2, [r3, #1]
						}
						speakerButton[i][2] = button[1];
 80005ea:	7bfb      	ldrb	r3, [r7, #15]
 80005ec:	4a12      	ldr	r2, [pc, #72]	@ (8000638 <HAL_CAN_RxFifo0MsgPendingCallback+0x410>)
 80005ee:	7851      	ldrb	r1, [r2, #1]
 80005f0:	4a12      	ldr	r2, [pc, #72]	@ (800063c <HAL_CAN_RxFifo0MsgPendingCallback+0x414>)
 80005f2:	009b      	lsls	r3, r3, #2
 80005f4:	4413      	add	r3, r2
 80005f6:	460a      	mov	r2, r1
 80005f8:	709a      	strb	r2, [r3, #2]
						speakerButton[i][3] = button[2];
 80005fa:	7bfb      	ldrb	r3, [r7, #15]
 80005fc:	4a0e      	ldr	r2, [pc, #56]	@ (8000638 <HAL_CAN_RxFifo0MsgPendingCallback+0x410>)
 80005fe:	7891      	ldrb	r1, [r2, #2]
 8000600:	4a0e      	ldr	r2, [pc, #56]	@ (800063c <HAL_CAN_RxFifo0MsgPendingCallback+0x414>)
 8000602:	009b      	lsls	r3, r3, #2
 8000604:	4413      	add	r3, r2
 8000606:	460a      	mov	r2, r1
 8000608:	70da      	strb	r2, [r3, #3]
						return;
 800060a:	e005      	b.n	8000618 <HAL_CAN_RxFifo0MsgPendingCallback+0x3f0>
				for (uint8_t i=0; i<5; i++)
 800060c:	7bfb      	ldrb	r3, [r7, #15]
 800060e:	3301      	adds	r3, #1
 8000610:	73fb      	strb	r3, [r7, #15]
 8000612:	7bfb      	ldrb	r3, [r7, #15]
 8000614:	2b04      	cmp	r3, #4
 8000616:	d9ca      	bls.n	80005ae <HAL_CAN_RxFifo0MsgPendingCallback+0x386>
					}
				}
			}
		}
	}
}
 8000618:	3718      	adds	r7, #24
 800061a:	46bd      	mov	sp, r7
 800061c:	bd80      	pop	{r7, pc}
 800061e:	bf00      	nop
 8000620:	2000014c 	.word	0x2000014c
 8000624:	20000154 	.word	0x20000154
 8000628:	200001a8 	.word	0x200001a8
 800062c:	20000130 	.word	0x20000130
 8000630:	2000018e 	.word	0x2000018e
 8000634:	2000018f 	.word	0x2000018f
 8000638:	200001b4 	.word	0x200001b4
 800063c:	20000194 	.word	0x20000194

08000640 <HAL_UARTEx_RxEventCallback>:
void HAL_UARTEx_RxEventCallback(UART_HandleTypeDef *huart, uint16_t Size)
{
 8000640:	b580      	push	{r7, lr}
 8000642:	b082      	sub	sp, #8
 8000644:	af00      	add	r7, sp, #0
 8000646:	6078      	str	r0, [r7, #4]
 8000648:	460b      	mov	r3, r1
 800064a:	807b      	strh	r3, [r7, #2]
	if (huart->Instance == huart2.Instance)
 800064c:	687b      	ldr	r3, [r7, #4]
 800064e:	681a      	ldr	r2, [r3, #0]
 8000650:	4b15      	ldr	r3, [pc, #84]	@ (80006a8 <HAL_UARTEx_RxEventCallback+0x68>)
 8000652:	681b      	ldr	r3, [r3, #0]
 8000654:	429a      	cmp	r2, r3
 8000656:	d122      	bne.n	800069e <HAL_UARTEx_RxEventCallback+0x5e>
	{
		HAL_UARTEx_ReceiveToIdle_DMA(&huart2, uart_data, Size);
 8000658:	887b      	ldrh	r3, [r7, #2]
 800065a:	461a      	mov	r2, r3
 800065c:	4913      	ldr	r1, [pc, #76]	@ (80006ac <HAL_UARTEx_RxEventCallback+0x6c>)
 800065e:	4812      	ldr	r0, [pc, #72]	@ (80006a8 <HAL_UARTEx_RxEventCallback+0x68>)
 8000660:	f003 fb97 	bl	8003d92 <HAL_UARTEx_ReceiveToIdle_DMA>
		__HAL_DMA_DISABLE_IT(&hdma_usart2_rx, DMA_IT_HT);
 8000664:	4b12      	ldr	r3, [pc, #72]	@ (80006b0 <HAL_UARTEx_RxEventCallback+0x70>)
 8000666:	681b      	ldr	r3, [r3, #0]
 8000668:	681a      	ldr	r2, [r3, #0]
 800066a:	4b11      	ldr	r3, [pc, #68]	@ (80006b0 <HAL_UARTEx_RxEventCallback+0x70>)
 800066c:	681b      	ldr	r3, [r3, #0]
 800066e:	f022 0204 	bic.w	r2, r2, #4
 8000672:	601a      	str	r2, [r3, #0]
		if (uart_data[3] == 0x3D || uart_data[3] == 0x3F)
 8000674:	4b0d      	ldr	r3, [pc, #52]	@ (80006ac <HAL_UARTEx_RxEventCallback+0x6c>)
 8000676:	78db      	ldrb	r3, [r3, #3]
 8000678:	2b3d      	cmp	r3, #61	@ 0x3d
 800067a:	d003      	beq.n	8000684 <HAL_UARTEx_RxEventCallback+0x44>
 800067c:	4b0b      	ldr	r3, [pc, #44]	@ (80006ac <HAL_UARTEx_RxEventCallback+0x6c>)
 800067e:	78db      	ldrb	r3, [r3, #3]
 8000680:	2b3f      	cmp	r3, #63	@ 0x3f
 8000682:	d10c      	bne.n	800069e <HAL_UARTEx_RxEventCallback+0x5e>
		{
			feedbackSpeaker = (uart_data[5]<<8)|uart_data[6];
 8000684:	4b09      	ldr	r3, [pc, #36]	@ (80006ac <HAL_UARTEx_RxEventCallback+0x6c>)
 8000686:	795b      	ldrb	r3, [r3, #5]
 8000688:	b21b      	sxth	r3, r3
 800068a:	021b      	lsls	r3, r3, #8
 800068c:	b21a      	sxth	r2, r3
 800068e:	4b07      	ldr	r3, [pc, #28]	@ (80006ac <HAL_UARTEx_RxEventCallback+0x6c>)
 8000690:	799b      	ldrb	r3, [r3, #6]
 8000692:	b21b      	sxth	r3, r3
 8000694:	4313      	orrs	r3, r2
 8000696:	b21b      	sxth	r3, r3
 8000698:	b29a      	uxth	r2, r3
 800069a:	4b06      	ldr	r3, [pc, #24]	@ (80006b4 <HAL_UARTEx_RxEventCallback+0x74>)
 800069c:	801a      	strh	r2, [r3, #0]
		}
	}
}
 800069e:	bf00      	nop
 80006a0:	3708      	adds	r7, #8
 80006a2:	46bd      	mov	sp, r7
 80006a4:	bd80      	pop	{r7, pc}
 80006a6:	bf00      	nop
 80006a8:	200000a4 	.word	0x200000a4
 80006ac:	2000015c 	.word	0x2000015c
 80006b0:	200000ec 	.word	0x200000ec
 80006b4:	200001ba 	.word	0x200001ba

080006b8 <HAL_TIM_PeriodElapsedCallback>:
void HAL_TIM_PeriodElapsedCallback(TIM_HandleTypeDef *htim)
{
 80006b8:	b580      	push	{r7, lr}
 80006ba:	b082      	sub	sp, #8
 80006bc:	af00      	add	r7, sp, #0
 80006be:	6078      	str	r0, [r7, #4]
	if (htim->Instance == htim3.Instance)
 80006c0:	687b      	ldr	r3, [r7, #4]
 80006c2:	681a      	ldr	r2, [r3, #0]
 80006c4:	4b05      	ldr	r3, [pc, #20]	@ (80006dc <HAL_TIM_PeriodElapsedCallback+0x24>)
 80006c6:	681b      	ldr	r3, [r3, #0]
 80006c8:	429a      	cmp	r2, r3
 80006ca:	d102      	bne.n	80006d2 <HAL_TIM_PeriodElapsedCallback+0x1a>
	{
		HAL_IWDG_Refresh(&hiwdg);
 80006cc:	4804      	ldr	r0, [pc, #16]	@ (80006e0 <HAL_TIM_PeriodElapsedCallback+0x28>)
 80006ce:	f002 fa71 	bl	8002bb4 <HAL_IWDG_Refresh>
	}
}
 80006d2:	bf00      	nop
 80006d4:	3708      	adds	r7, #8
 80006d6:	46bd      	mov	sp, r7
 80006d8:	bd80      	pop	{r7, pc}
 80006da:	bf00      	nop
 80006dc:	2000005c 	.word	0x2000005c
 80006e0:	20000050 	.word	0x20000050

080006e4 <main>:
/**
  * @brief  The application entry point.
  * @retval int
  */
int main(void)
{
 80006e4:	b5f0      	push	{r4, r5, r6, r7, lr}
 80006e6:	b08b      	sub	sp, #44	@ 0x2c
 80006e8:	af08      	add	r7, sp, #32
  /* USER CODE END 1 */

  /* MCU Configuration--------------------------------------------------------*/

  /* Reset of all peripherals, Initializes the Flash interface and the Systick. */
  HAL_Init();
 80006ea:	f000 fec1 	bl	8001470 <HAL_Init>
  /* USER CODE BEGIN Init */

  /* USER CODE END Init */

  /* Configure the system clock */
  SystemClock_Config();
 80006ee:	f000 fa7d 	bl	8000bec <SystemClock_Config>

  /* USER CODE BEGIN SysInit */
  __HAL_DBGMCU_FREEZE_IWDG();
 80006f2:	4ba9      	ldr	r3, [pc, #676]	@ (8000998 <main+0x2b4>)
 80006f4:	685b      	ldr	r3, [r3, #4]
 80006f6:	4aa8      	ldr	r2, [pc, #672]	@ (8000998 <main+0x2b4>)
 80006f8:	f443 7380 	orr.w	r3, r3, #256	@ 0x100
 80006fc:	6053      	str	r3, [r2, #4]
  /* USER CODE END SysInit */

  /* Initialize all configured peripherals */
  MX_GPIO_Init();
 80006fe:	f000 fba5 	bl	8000e4c <MX_GPIO_Init>
  MX_DMA_Init();
 8000702:	f000 fb85 	bl	8000e10 <MX_DMA_Init>
  MX_CAN_Init();
 8000706:	f000 fab9 	bl	8000c7c <MX_CAN_Init>
  MX_USART2_UART_Init();
 800070a:	f000 fb57 	bl	8000dbc <MX_USART2_UART_Init>
  MX_TIM3_Init();
 800070e:	f000 fb07 	bl	8000d20 <MX_TIM3_Init>
  MX_IWDG_Init();
 8000712:	f000 faeb 	bl	8000cec <MX_IWDG_Init>
  /* USER CODE BEGIN 2 */
  HAL_TIM_Base_Start_IT(&htim3);
 8000716:	48a1      	ldr	r0, [pc, #644]	@ (800099c <main+0x2b8>)
 8000718:	f002 febe 	bl	8003498 <HAL_TIM_Base_Start_IT>
  HAL_UARTEx_ReceiveToIdle_DMA(&huart2, uart_data, 50);
 800071c:	2232      	movs	r2, #50	@ 0x32
 800071e:	49a0      	ldr	r1, [pc, #640]	@ (80009a0 <main+0x2bc>)
 8000720:	48a0      	ldr	r0, [pc, #640]	@ (80009a4 <main+0x2c0>)
 8000722:	f003 fb36 	bl	8003d92 <HAL_UARTEx_ReceiveToIdle_DMA>
  __HAL_DMA_DISABLE_IT(&hdma_usart2_rx, DMA_IT_HT);
 8000726:	4ba0      	ldr	r3, [pc, #640]	@ (80009a8 <main+0x2c4>)
 8000728:	681b      	ldr	r3, [r3, #0]
 800072a:	681a      	ldr	r2, [r3, #0]
 800072c:	4b9e      	ldr	r3, [pc, #632]	@ (80009a8 <main+0x2c4>)
 800072e:	681b      	ldr	r3, [r3, #0]
 8000730:	f022 0204 	bic.w	r2, r2, #4
 8000734:	601a      	str	r2, [r3, #0]
  while (!detect_speed)
 8000736:	e050      	b.n	80007da <main+0xf6>
  {
	  if (!read_speed)
 8000738:	4b9c      	ldr	r3, [pc, #624]	@ (80009ac <main+0x2c8>)
 800073a:	781b      	ldrb	r3, [r3, #0]
 800073c:	f083 0301 	eor.w	r3, r3, #1
 8000740:	b2db      	uxtb	r3, r3
 8000742:	2b00      	cmp	r3, #0
 8000744:	d032      	beq.n	80007ac <main+0xc8>
	  {
		  if (abs(HAL_GetTick() - timer) > 500)
 8000746:	f000 feeb 	bl	8001520 <HAL_GetTick>
 800074a:	4602      	mov	r2, r0
 800074c:	4b98      	ldr	r3, [pc, #608]	@ (80009b0 <main+0x2cc>)
 800074e:	681b      	ldr	r3, [r3, #0]
 8000750:	1ad3      	subs	r3, r2, r3
 8000752:	2b00      	cmp	r3, #0
 8000754:	bfb8      	it	lt
 8000756:	425b      	neglt	r3, r3
 8000758:	f5b3 7ffa 	cmp.w	r3, #500	@ 0x1f4
 800075c:	dd3d      	ble.n	80007da <main+0xf6>
		  {
			  timer = HAL_GetTick();
 800075e:	f000 fedf 	bl	8001520 <HAL_GetTick>
 8000762:	4603      	mov	r3, r0
 8000764:	4a92      	ldr	r2, [pc, #584]	@ (80009b0 <main+0x2cc>)
 8000766:	6013      	str	r3, [r2, #0]
			  speed ++;
 8000768:	4b92      	ldr	r3, [pc, #584]	@ (80009b4 <main+0x2d0>)
 800076a:	781b      	ldrb	r3, [r3, #0]
 800076c:	3301      	adds	r3, #1
 800076e:	b2da      	uxtb	r2, r3
 8000770:	4b90      	ldr	r3, [pc, #576]	@ (80009b4 <main+0x2d0>)
 8000772:	701a      	strb	r2, [r3, #0]
			  if (speed > 3)
 8000774:	4b8f      	ldr	r3, [pc, #572]	@ (80009b4 <main+0x2d0>)
 8000776:	781b      	ldrb	r3, [r3, #0]
 8000778:	2b03      	cmp	r3, #3
 800077a:	d902      	bls.n	8000782 <main+0x9e>
			  {
				  speed = 1;
 800077c:	4b8d      	ldr	r3, [pc, #564]	@ (80009b4 <main+0x2d0>)
 800077e:	2201      	movs	r2, #1
 8000780:	701a      	strb	r2, [r3, #0]
			  }
			  Set_speed_can(hcan, detect_speed, speed);
 8000782:	4b8d      	ldr	r3, [pc, #564]	@ (80009b8 <main+0x2d4>)
 8000784:	781b      	ldrb	r3, [r3, #0]
 8000786:	4a8b      	ldr	r2, [pc, #556]	@ (80009b4 <main+0x2d0>)
 8000788:	7812      	ldrb	r2, [r2, #0]
 800078a:	4e8c      	ldr	r6, [pc, #560]	@ (80009bc <main+0x2d8>)
 800078c:	9207      	str	r2, [sp, #28]
 800078e:	9306      	str	r3, [sp, #24]
 8000790:	466d      	mov	r5, sp
 8000792:	f106 0410 	add.w	r4, r6, #16
 8000796:	cc0f      	ldmia	r4!, {r0, r1, r2, r3}
 8000798:	c50f      	stmia	r5!, {r0, r1, r2, r3}
 800079a:	e894 0003 	ldmia.w	r4, {r0, r1}
 800079e:	e885 0003 	stmia.w	r5, {r0, r1}
 80007a2:	e896 000f 	ldmia.w	r6, {r0, r1, r2, r3}
 80007a6:	f000 fb9d 	bl	8000ee4 <Set_speed_can>
 80007aa:	e016      	b.n	80007da <main+0xf6>
		  }
	  } else
	  {
		  detect_speed = true;
 80007ac:	4b82      	ldr	r3, [pc, #520]	@ (80009b8 <main+0x2d4>)
 80007ae:	2201      	movs	r2, #1
 80007b0:	701a      	strb	r2, [r3, #0]
		  Set_speed_can(hcan, detect_speed, speed);
 80007b2:	4b81      	ldr	r3, [pc, #516]	@ (80009b8 <main+0x2d4>)
 80007b4:	781b      	ldrb	r3, [r3, #0]
 80007b6:	4a7f      	ldr	r2, [pc, #508]	@ (80009b4 <main+0x2d0>)
 80007b8:	7812      	ldrb	r2, [r2, #0]
 80007ba:	4e80      	ldr	r6, [pc, #512]	@ (80009bc <main+0x2d8>)
 80007bc:	9207      	str	r2, [sp, #28]
 80007be:	9306      	str	r3, [sp, #24]
 80007c0:	466d      	mov	r5, sp
 80007c2:	f106 0410 	add.w	r4, r6, #16
 80007c6:	cc0f      	ldmia	r4!, {r0, r1, r2, r3}
 80007c8:	c50f      	stmia	r5!, {r0, r1, r2, r3}
 80007ca:	e894 0003 	ldmia.w	r4, {r0, r1}
 80007ce:	e885 0003 	stmia.w	r5, {r0, r1}
 80007d2:	e896 000f 	ldmia.w	r6, {r0, r1, r2, r3}
 80007d6:	f000 fb85 	bl	8000ee4 <Set_speed_can>
  while (!detect_speed)
 80007da:	4b77      	ldr	r3, [pc, #476]	@ (80009b8 <main+0x2d4>)
 80007dc:	781b      	ldrb	r3, [r3, #0]
 80007de:	f083 0301 	eor.w	r3, r3, #1
 80007e2:	b2db      	uxtb	r3, r3
 80007e4:	2b00      	cmp	r3, #0
 80007e6:	d1a7      	bne.n	8000738 <main+0x54>
	  }
  }
  HAL_Delay(1000);
 80007e8:	f44f 707a 	mov.w	r0, #1000	@ 0x3e8
 80007ec:	f000 fea2 	bl	8001534 <HAL_Delay>
  DF_Init(30);
 80007f0:	201e      	movs	r0, #30
 80007f2:	f7ff fceb 	bl	80001cc <DF_Init>
  breakTimer = HAL_GetTick();
 80007f6:	f000 fe93 	bl	8001520 <HAL_GetTick>
 80007fa:	4603      	mov	r3, r0
 80007fc:	4a70      	ldr	r2, [pc, #448]	@ (80009c0 <main+0x2dc>)
 80007fe:	6013      	str	r3, [r2, #0]
  while (feedbackSpeaker != 0x02)
 8000800:	e00b      	b.n	800081a <main+0x136>
  {
	  if (abs(HAL_GetTick() - breakTimer) > 500)
 8000802:	f000 fe8d 	bl	8001520 <HAL_GetTick>
 8000806:	4602      	mov	r2, r0
 8000808:	4b6d      	ldr	r3, [pc, #436]	@ (80009c0 <main+0x2dc>)
 800080a:	681b      	ldr	r3, [r3, #0]
 800080c:	1ad3      	subs	r3, r2, r3
 800080e:	2b00      	cmp	r3, #0
 8000810:	bfb8      	it	lt
 8000812:	425b      	neglt	r3, r3
 8000814:	f5b3 7ffa 	cmp.w	r3, #500	@ 0x1f4
 8000818:	dc04      	bgt.n	8000824 <main+0x140>
  while (feedbackSpeaker != 0x02)
 800081a:	4b6a      	ldr	r3, [pc, #424]	@ (80009c4 <main+0x2e0>)
 800081c:	881b      	ldrh	r3, [r3, #0]
 800081e:	2b02      	cmp	r3, #2
 8000820:	d1ef      	bne.n	8000802 <main+0x11e>
 8000822:	e000      	b.n	8000826 <main+0x142>
	  {
		  break;
 8000824:	bf00      	nop
	  }
  }
  feedbackSpeaker = 0;
 8000826:	4b67      	ldr	r3, [pc, #412]	@ (80009c4 <main+0x2e0>)
 8000828:	2200      	movs	r2, #0
 800082a:	801a      	strh	r2, [r3, #0]
  {
    /* USER CODE END WHILE */

    /* USER CODE BEGIN 3 */

	  if (speakerButton[0][0] == 1)
 800082c:	4b66      	ldr	r3, [pc, #408]	@ (80009c8 <main+0x2e4>)
 800082e:	781b      	ldrb	r3, [r3, #0]
 8000830:	2b01      	cmp	r3, #1
 8000832:	d16b      	bne.n	800090c <main+0x228>
	  {
		  if (speakerButton[0][1] == 1)
 8000834:	4b64      	ldr	r3, [pc, #400]	@ (80009c8 <main+0x2e4>)
 8000836:	785b      	ldrb	r3, [r3, #1]
 8000838:	2b01      	cmp	r3, #1
 800083a:	d11d      	bne.n	8000878 <main+0x194>
		  {
			  // đọc cancel
			  DF_Play(41);
 800083c:	2029      	movs	r0, #41	@ 0x29
 800083e:	f7ff fce0 	bl	8000202 <DF_Play>
			  breakTimer = HAL_GetTick();
 8000842:	f000 fe6d 	bl	8001520 <HAL_GetTick>
 8000846:	4603      	mov	r3, r0
 8000848:	4a5d      	ldr	r2, [pc, #372]	@ (80009c0 <main+0x2dc>)
 800084a:	6013      	str	r3, [r2, #0]
			  while (feedbackSpeaker != 41)
 800084c:	e00b      	b.n	8000866 <main+0x182>
			  {
				  if (abs(HAL_GetTick() - breakTimer) > 500)
 800084e:	f000 fe67 	bl	8001520 <HAL_GetTick>
 8000852:	4602      	mov	r2, r0
 8000854:	4b5a      	ldr	r3, [pc, #360]	@ (80009c0 <main+0x2dc>)
 8000856:	681b      	ldr	r3, [r3, #0]
 8000858:	1ad3      	subs	r3, r2, r3
 800085a:	2b00      	cmp	r3, #0
 800085c:	bfb8      	it	lt
 800085e:	425b      	neglt	r3, r3
 8000860:	f5b3 7ffa 	cmp.w	r3, #500	@ 0x1f4
 8000864:	dc04      	bgt.n	8000870 <main+0x18c>
			  while (feedbackSpeaker != 41)
 8000866:	4b57      	ldr	r3, [pc, #348]	@ (80009c4 <main+0x2e0>)
 8000868:	881b      	ldrh	r3, [r3, #0]
 800086a:	2b29      	cmp	r3, #41	@ 0x29
 800086c:	d1ef      	bne.n	800084e <main+0x16a>
 800086e:	e000      	b.n	8000872 <main+0x18e>
				  {
					  break;
 8000870:	bf00      	nop
				  }
			  }
			  feedbackSpeaker = 0;
 8000872:	4b54      	ldr	r3, [pc, #336]	@ (80009c4 <main+0x2e0>)
 8000874:	2200      	movs	r2, #0
 8000876:	801a      	strh	r2, [r3, #0]
//			  HAL_Delay(100);
		  }
		  // đọc tầng
		  speaker_floor(speakerButton[0][2], speakerButton[0][3]);
 8000878:	4b53      	ldr	r3, [pc, #332]	@ (80009c8 <main+0x2e4>)
 800087a:	789b      	ldrb	r3, [r3, #2]
 800087c:	4a52      	ldr	r2, [pc, #328]	@ (80009c8 <main+0x2e4>)
 800087e:	78d2      	ldrb	r2, [r2, #3]
 8000880:	4611      	mov	r1, r2
 8000882:	4618      	mov	r0, r3
 8000884:	f000 fbee 	bl	8001064 <speaker_floor>
		  for (uint8_t i=0; i<4; i++)
 8000888:	2300      	movs	r3, #0
 800088a:	71fb      	strb	r3, [r7, #7]
 800088c:	e02f      	b.n	80008ee <main+0x20a>
		  {
			  speakerButton[i][0] = speakerButton[i+1][0];
 800088e:	79fb      	ldrb	r3, [r7, #7]
 8000890:	1c5a      	adds	r2, r3, #1
 8000892:	79fb      	ldrb	r3, [r7, #7]
 8000894:	494c      	ldr	r1, [pc, #304]	@ (80009c8 <main+0x2e4>)
 8000896:	f811 1022 	ldrb.w	r1, [r1, r2, lsl #2]
 800089a:	4a4b      	ldr	r2, [pc, #300]	@ (80009c8 <main+0x2e4>)
 800089c:	f802 1023 	strb.w	r1, [r2, r3, lsl #2]
			  speakerButton[i][1] = speakerButton[i+1][1];
 80008a0:	79fb      	ldrb	r3, [r7, #7]
 80008a2:	3301      	adds	r3, #1
 80008a4:	79fa      	ldrb	r2, [r7, #7]
 80008a6:	4948      	ldr	r1, [pc, #288]	@ (80009c8 <main+0x2e4>)
 80008a8:	009b      	lsls	r3, r3, #2
 80008aa:	440b      	add	r3, r1
 80008ac:	7858      	ldrb	r0, [r3, #1]
 80008ae:	4946      	ldr	r1, [pc, #280]	@ (80009c8 <main+0x2e4>)
 80008b0:	0093      	lsls	r3, r2, #2
 80008b2:	440b      	add	r3, r1
 80008b4:	4602      	mov	r2, r0
 80008b6:	705a      	strb	r2, [r3, #1]
			  speakerButton[i][2] = speakerButton[i+1][2];
 80008b8:	79fb      	ldrb	r3, [r7, #7]
 80008ba:	3301      	adds	r3, #1
 80008bc:	79fa      	ldrb	r2, [r7, #7]
 80008be:	4942      	ldr	r1, [pc, #264]	@ (80009c8 <main+0x2e4>)
 80008c0:	009b      	lsls	r3, r3, #2
 80008c2:	440b      	add	r3, r1
 80008c4:	7898      	ldrb	r0, [r3, #2]
 80008c6:	4940      	ldr	r1, [pc, #256]	@ (80009c8 <main+0x2e4>)
 80008c8:	0093      	lsls	r3, r2, #2
 80008ca:	440b      	add	r3, r1
 80008cc:	4602      	mov	r2, r0
 80008ce:	709a      	strb	r2, [r3, #2]
			  speakerButton[i][3] = speakerButton[i+1][3];
 80008d0:	79fb      	ldrb	r3, [r7, #7]
 80008d2:	3301      	adds	r3, #1
 80008d4:	79fa      	ldrb	r2, [r7, #7]
 80008d6:	493c      	ldr	r1, [pc, #240]	@ (80009c8 <main+0x2e4>)
 80008d8:	009b      	lsls	r3, r3, #2
 80008da:	440b      	add	r3, r1
 80008dc:	78d8      	ldrb	r0, [r3, #3]
 80008de:	493a      	ldr	r1, [pc, #232]	@ (80009c8 <main+0x2e4>)
 80008e0:	0093      	lsls	r3, r2, #2
 80008e2:	440b      	add	r3, r1
 80008e4:	4602      	mov	r2, r0
 80008e6:	70da      	strb	r2, [r3, #3]
		  for (uint8_t i=0; i<4; i++)
 80008e8:	79fb      	ldrb	r3, [r7, #7]
 80008ea:	3301      	adds	r3, #1
 80008ec:	71fb      	strb	r3, [r7, #7]
 80008ee:	79fb      	ldrb	r3, [r7, #7]
 80008f0:	2b03      	cmp	r3, #3
 80008f2:	d9cc      	bls.n	800088e <main+0x1aa>
		  }
		  speakerButton[4][0] = 0;
 80008f4:	4b34      	ldr	r3, [pc, #208]	@ (80009c8 <main+0x2e4>)
 80008f6:	2200      	movs	r2, #0
 80008f8:	741a      	strb	r2, [r3, #16]
		  speakerButton[4][1] = 0;
 80008fa:	4b33      	ldr	r3, [pc, #204]	@ (80009c8 <main+0x2e4>)
 80008fc:	2200      	movs	r2, #0
 80008fe:	745a      	strb	r2, [r3, #17]
		  speakerButton[4][2] = 0;
 8000900:	4b31      	ldr	r3, [pc, #196]	@ (80009c8 <main+0x2e4>)
 8000902:	2200      	movs	r2, #0
 8000904:	749a      	strb	r2, [r3, #18]
		  speakerButton[4][3] = 0;
 8000906:	4b30      	ldr	r3, [pc, #192]	@ (80009c8 <main+0x2e4>)
 8000908:	2200      	movs	r2, #0
 800090a:	74da      	strb	r2, [r3, #19]
	  }
	  if (speakerState[0][0] != 0)
 800090c:	4b2f      	ldr	r3, [pc, #188]	@ (80009cc <main+0x2e8>)
 800090e:	781b      	ldrb	r3, [r3, #0]
 8000910:	2b00      	cmp	r3, #0
 8000912:	f000 815c 	beq.w	8000bce <main+0x4ea>
	  {
		  switch (speakerState[0][0])
 8000916:	4b2d      	ldr	r3, [pc, #180]	@ (80009cc <main+0x2e8>)
 8000918:	781b      	ldrb	r3, [r3, #0]
 800091a:	2b0b      	cmp	r3, #11
 800091c:	d071      	beq.n	8000a02 <main+0x31e>
 800091e:	2b0b      	cmp	r3, #11
 8000920:	f300 8107 	bgt.w	8000b32 <main+0x44e>
 8000924:	2b04      	cmp	r3, #4
 8000926:	d003      	beq.n	8000930 <main+0x24c>
 8000928:	2b07      	cmp	r3, #7
 800092a:	f000 80b7 	beq.w	8000a9c <main+0x3b8>
 800092e:	e100      	b.n	8000b32 <main+0x44e>
		  {
		  case speak_state_door:
			  if (speakerState[0][1] == 1)
 8000930:	4b26      	ldr	r3, [pc, #152]	@ (80009cc <main+0x2e8>)
 8000932:	785b      	ldrb	r3, [r3, #1]
 8000934:	2b01      	cmp	r3, #1
 8000936:	d121      	bne.n	800097c <main+0x298>
			  {
				  DF_Play(35); // open
 8000938:	2023      	movs	r0, #35	@ 0x23
 800093a:	f7ff fc62 	bl	8000202 <DF_Play>
				  breakTimer = HAL_GetTick();
 800093e:	f000 fdef 	bl	8001520 <HAL_GetTick>
 8000942:	4603      	mov	r3, r0
 8000944:	4a1e      	ldr	r2, [pc, #120]	@ (80009c0 <main+0x2dc>)
 8000946:	6013      	str	r3, [r2, #0]
				  while (feedbackSpeaker != 35)
 8000948:	e00b      	b.n	8000962 <main+0x27e>
				  {
					  if (abs(HAL_GetTick() - breakTimer) > 500)
 800094a:	f000 fde9 	bl	8001520 <HAL_GetTick>
 800094e:	4602      	mov	r2, r0
 8000950:	4b1b      	ldr	r3, [pc, #108]	@ (80009c0 <main+0x2dc>)
 8000952:	681b      	ldr	r3, [r3, #0]
 8000954:	1ad3      	subs	r3, r2, r3
 8000956:	2b00      	cmp	r3, #0
 8000958:	bfb8      	it	lt
 800095a:	425b      	neglt	r3, r3
 800095c:	f5b3 7ffa 	cmp.w	r3, #500	@ 0x1f4
 8000960:	dc04      	bgt.n	800096c <main+0x288>
				  while (feedbackSpeaker != 35)
 8000962:	4b18      	ldr	r3, [pc, #96]	@ (80009c4 <main+0x2e0>)
 8000964:	881b      	ldrh	r3, [r3, #0]
 8000966:	2b23      	cmp	r3, #35	@ 0x23
 8000968:	d1ef      	bne.n	800094a <main+0x266>
 800096a:	e000      	b.n	800096e <main+0x28a>
					  {
						  break;
 800096c:	bf00      	nop
					  }
				  }
				  feedbackSpeaker = 0;
 800096e:	4b15      	ldr	r3, [pc, #84]	@ (80009c4 <main+0x2e0>)
 8000970:	2200      	movs	r2, #0
 8000972:	801a      	strh	r2, [r3, #0]
				  HAL_Delay(200);
 8000974:	20c8      	movs	r0, #200	@ 0xc8
 8000976:	f000 fddd 	bl	8001534 <HAL_Delay>
					  }
				  }
				  feedbackSpeaker = 0;
				  HAL_Delay(200);
			  }
			  break;
 800097a:	e101      	b.n	8000b80 <main+0x49c>
			  } else if (speakerState[0][1] == 2)
 800097c:	4b13      	ldr	r3, [pc, #76]	@ (80009cc <main+0x2e8>)
 800097e:	785b      	ldrb	r3, [r3, #1]
 8000980:	2b02      	cmp	r3, #2
 8000982:	f040 80fd 	bne.w	8000b80 <main+0x49c>
				  DF_Play(36); // close
 8000986:	2024      	movs	r0, #36	@ 0x24
 8000988:	f7ff fc3b 	bl	8000202 <DF_Play>
				  breakTimer = HAL_GetTick();
 800098c:	f000 fdc8 	bl	8001520 <HAL_GetTick>
 8000990:	4603      	mov	r3, r0
 8000992:	4a0b      	ldr	r2, [pc, #44]	@ (80009c0 <main+0x2dc>)
 8000994:	6013      	str	r3, [r2, #0]
				  while (feedbackSpeaker != 36)
 8000996:	e027      	b.n	80009e8 <main+0x304>
 8000998:	e0042000 	.word	0xe0042000
 800099c:	2000005c 	.word	0x2000005c
 80009a0:	2000015c 	.word	0x2000015c
 80009a4:	200000a4 	.word	0x200000a4
 80009a8:	200000ec 	.word	0x200000ec
 80009ac:	200001b8 	.word	0x200001b8
 80009b0:	200001bc 	.word	0x200001bc
 80009b4:	20000190 	.word	0x20000190
 80009b8:	200001b7 	.word	0x200001b7
 80009bc:	20000028 	.word	0x20000028
 80009c0:	200001c0 	.word	0x200001c0
 80009c4:	200001ba 	.word	0x200001ba
 80009c8:	20000194 	.word	0x20000194
 80009cc:	200001a8 	.word	0x200001a8
					  if (abs(HAL_GetTick() - breakTimer) > 500)
 80009d0:	f000 fda6 	bl	8001520 <HAL_GetTick>
 80009d4:	4602      	mov	r2, r0
 80009d6:	4b80      	ldr	r3, [pc, #512]	@ (8000bd8 <main+0x4f4>)
 80009d8:	681b      	ldr	r3, [r3, #0]
 80009da:	1ad3      	subs	r3, r2, r3
 80009dc:	2b00      	cmp	r3, #0
 80009de:	bfb8      	it	lt
 80009e0:	425b      	neglt	r3, r3
 80009e2:	f5b3 7ffa 	cmp.w	r3, #500	@ 0x1f4
 80009e6:	dc04      	bgt.n	80009f2 <main+0x30e>
				  while (feedbackSpeaker != 36)
 80009e8:	4b7c      	ldr	r3, [pc, #496]	@ (8000bdc <main+0x4f8>)
 80009ea:	881b      	ldrh	r3, [r3, #0]
 80009ec:	2b24      	cmp	r3, #36	@ 0x24
 80009ee:	d1ef      	bne.n	80009d0 <main+0x2ec>
 80009f0:	e000      	b.n	80009f4 <main+0x310>
						  break;
 80009f2:	bf00      	nop
				  feedbackSpeaker = 0;
 80009f4:	4b79      	ldr	r3, [pc, #484]	@ (8000bdc <main+0x4f8>)
 80009f6:	2200      	movs	r2, #0
 80009f8:	801a      	strh	r2, [r3, #0]
				  HAL_Delay(200);
 80009fa:	20c8      	movs	r0, #200	@ 0xc8
 80009fc:	f000 fd9a 	bl	8001534 <HAL_Delay>
			  break;
 8000a00:	e0be      	b.n	8000b80 <main+0x49c>
		  case speak_state_direction:
			  if (speakerState[0][1] == 1)
 8000a02:	4b77      	ldr	r3, [pc, #476]	@ (8000be0 <main+0x4fc>)
 8000a04:	785b      	ldrb	r3, [r3, #1]
 8000a06:	2b01      	cmp	r3, #1
 8000a08:	d121      	bne.n	8000a4e <main+0x36a>
			  {
				  DF_Play(37); //  up
 8000a0a:	2025      	movs	r0, #37	@ 0x25
 8000a0c:	f7ff fbf9 	bl	8000202 <DF_Play>
				  breakTimer = HAL_GetTick();
 8000a10:	f000 fd86 	bl	8001520 <HAL_GetTick>
 8000a14:	4603      	mov	r3, r0
 8000a16:	4a70      	ldr	r2, [pc, #448]	@ (8000bd8 <main+0x4f4>)
 8000a18:	6013      	str	r3, [r2, #0]
				  while (feedbackSpeaker != 37)
 8000a1a:	e00b      	b.n	8000a34 <main+0x350>
				  {
					  if (abs(HAL_GetTick() - breakTimer) > 500)
 8000a1c:	f000 fd80 	bl	8001520 <HAL_GetTick>
 8000a20:	4602      	mov	r2, r0
 8000a22:	4b6d      	ldr	r3, [pc, #436]	@ (8000bd8 <main+0x4f4>)
 8000a24:	681b      	ldr	r3, [r3, #0]
 8000a26:	1ad3      	subs	r3, r2, r3
 8000a28:	2b00      	cmp	r3, #0
 8000a2a:	bfb8      	it	lt
 8000a2c:	425b      	neglt	r3, r3
 8000a2e:	f5b3 7ffa 	cmp.w	r3, #500	@ 0x1f4
 8000a32:	dc04      	bgt.n	8000a3e <main+0x35a>
				  while (feedbackSpeaker != 37)
 8000a34:	4b69      	ldr	r3, [pc, #420]	@ (8000bdc <main+0x4f8>)
 8000a36:	881b      	ldrh	r3, [r3, #0]
 8000a38:	2b25      	cmp	r3, #37	@ 0x25
 8000a3a:	d1ef      	bne.n	8000a1c <main+0x338>
 8000a3c:	e000      	b.n	8000a40 <main+0x35c>
					  {
						  break;
 8000a3e:	bf00      	nop
					  }
				  }
				  feedbackSpeaker = 0;
 8000a40:	4b66      	ldr	r3, [pc, #408]	@ (8000bdc <main+0x4f8>)
 8000a42:	2200      	movs	r2, #0
 8000a44:	801a      	strh	r2, [r3, #0]
				  HAL_Delay(200);
 8000a46:	20c8      	movs	r0, #200	@ 0xc8
 8000a48:	f000 fd74 	bl	8001534 <HAL_Delay>
					  }
				  }
				  feedbackSpeaker = 0;
				  HAL_Delay(200);
			  }
			  break;
 8000a4c:	e09a      	b.n	8000b84 <main+0x4a0>
			  } else if (speakerState[0][1] == 2)
 8000a4e:	4b64      	ldr	r3, [pc, #400]	@ (8000be0 <main+0x4fc>)
 8000a50:	785b      	ldrb	r3, [r3, #1]
 8000a52:	2b02      	cmp	r3, #2
 8000a54:	f040 8096 	bne.w	8000b84 <main+0x4a0>
				  DF_Play(38); // down
 8000a58:	2026      	movs	r0, #38	@ 0x26
 8000a5a:	f7ff fbd2 	bl	8000202 <DF_Play>
				  breakTimer = HAL_GetTick();
 8000a5e:	f000 fd5f 	bl	8001520 <HAL_GetTick>
 8000a62:	4603      	mov	r3, r0
 8000a64:	4a5c      	ldr	r2, [pc, #368]	@ (8000bd8 <main+0x4f4>)
 8000a66:	6013      	str	r3, [r2, #0]
				  while (feedbackSpeaker != 38)
 8000a68:	e00b      	b.n	8000a82 <main+0x39e>
					  if (abs(HAL_GetTick() - breakTimer) > 500)
 8000a6a:	f000 fd59 	bl	8001520 <HAL_GetTick>
 8000a6e:	4602      	mov	r2, r0
 8000a70:	4b59      	ldr	r3, [pc, #356]	@ (8000bd8 <main+0x4f4>)
 8000a72:	681b      	ldr	r3, [r3, #0]
 8000a74:	1ad3      	subs	r3, r2, r3
 8000a76:	2b00      	cmp	r3, #0
 8000a78:	bfb8      	it	lt
 8000a7a:	425b      	neglt	r3, r3
 8000a7c:	f5b3 7ffa 	cmp.w	r3, #500	@ 0x1f4
 8000a80:	dc04      	bgt.n	8000a8c <main+0x3a8>
				  while (feedbackSpeaker != 38)
 8000a82:	4b56      	ldr	r3, [pc, #344]	@ (8000bdc <main+0x4f8>)
 8000a84:	881b      	ldrh	r3, [r3, #0]
 8000a86:	2b26      	cmp	r3, #38	@ 0x26
 8000a88:	d1ef      	bne.n	8000a6a <main+0x386>
 8000a8a:	e000      	b.n	8000a8e <main+0x3aa>
						  break;
 8000a8c:	bf00      	nop
				  feedbackSpeaker = 0;
 8000a8e:	4b53      	ldr	r3, [pc, #332]	@ (8000bdc <main+0x4f8>)
 8000a90:	2200      	movs	r2, #0
 8000a92:	801a      	strh	r2, [r3, #0]
				  HAL_Delay(200);
 8000a94:	20c8      	movs	r0, #200	@ 0xc8
 8000a96:	f000 fd4d 	bl	8001534 <HAL_Delay>
			  break;
 8000a9a:	e073      	b.n	8000b84 <main+0x4a0>
		  case speak_state_floor:
			  DF_Play(42); // ding dong
 8000a9c:	202a      	movs	r0, #42	@ 0x2a
 8000a9e:	f7ff fbb0 	bl	8000202 <DF_Play>
			  breakTimer = HAL_GetTick();
 8000aa2:	f000 fd3d 	bl	8001520 <HAL_GetTick>
 8000aa6:	4603      	mov	r3, r0
 8000aa8:	4a4b      	ldr	r2, [pc, #300]	@ (8000bd8 <main+0x4f4>)
 8000aaa:	6013      	str	r3, [r2, #0]
			  while (feedbackSpeaker != 42)
 8000aac:	e00b      	b.n	8000ac6 <main+0x3e2>
			  {
				  if (abs(HAL_GetTick() - breakTimer) > 2000)
 8000aae:	f000 fd37 	bl	8001520 <HAL_GetTick>
 8000ab2:	4602      	mov	r2, r0
 8000ab4:	4b48      	ldr	r3, [pc, #288]	@ (8000bd8 <main+0x4f4>)
 8000ab6:	681b      	ldr	r3, [r3, #0]
 8000ab8:	1ad3      	subs	r3, r2, r3
 8000aba:	2b00      	cmp	r3, #0
 8000abc:	bfb8      	it	lt
 8000abe:	425b      	neglt	r3, r3
 8000ac0:	f5b3 6ffa 	cmp.w	r3, #2000	@ 0x7d0
 8000ac4:	dc04      	bgt.n	8000ad0 <main+0x3ec>
			  while (feedbackSpeaker != 42)
 8000ac6:	4b45      	ldr	r3, [pc, #276]	@ (8000bdc <main+0x4f8>)
 8000ac8:	881b      	ldrh	r3, [r3, #0]
 8000aca:	2b2a      	cmp	r3, #42	@ 0x2a
 8000acc:	d1ef      	bne.n	8000aae <main+0x3ca>
 8000ace:	e000      	b.n	8000ad2 <main+0x3ee>
				  {
					  break;
 8000ad0:	bf00      	nop
				  }
			  }
			  feedbackSpeaker = 0;
 8000ad2:	4b42      	ldr	r3, [pc, #264]	@ (8000bdc <main+0x4f8>)
 8000ad4:	2200      	movs	r2, #0
 8000ad6:	801a      	strh	r2, [r3, #0]
			  HAL_Delay(100);
 8000ad8:	2064      	movs	r0, #100	@ 0x64
 8000ada:	f000 fd2b 	bl	8001534 <HAL_Delay>
			  // đọc tầng
			  speaker_floor(tenFloor, oneFloor);
 8000ade:	4b41      	ldr	r3, [pc, #260]	@ (8000be4 <main+0x500>)
 8000ae0:	781b      	ldrb	r3, [r3, #0]
 8000ae2:	4a41      	ldr	r2, [pc, #260]	@ (8000be8 <main+0x504>)
 8000ae4:	7812      	ldrb	r2, [r2, #0]
 8000ae6:	4611      	mov	r1, r2
 8000ae8:	4618      	mov	r0, r3
 8000aea:	f000 fabb 	bl	8001064 <speaker_floor>
//			  HAL_Delay(200);
			  DF_Play(43); // floor
 8000aee:	202b      	movs	r0, #43	@ 0x2b
 8000af0:	f7ff fb87 	bl	8000202 <DF_Play>
			  breakTimer = HAL_GetTick();
 8000af4:	f000 fd14 	bl	8001520 <HAL_GetTick>
 8000af8:	4603      	mov	r3, r0
 8000afa:	4a37      	ldr	r2, [pc, #220]	@ (8000bd8 <main+0x4f4>)
 8000afc:	6013      	str	r3, [r2, #0]
			  while (feedbackSpeaker != 43)
 8000afe:	e00b      	b.n	8000b18 <main+0x434>
			  {
				  if (abs(HAL_GetTick() - breakTimer) > 500)
 8000b00:	f000 fd0e 	bl	8001520 <HAL_GetTick>
 8000b04:	4602      	mov	r2, r0
 8000b06:	4b34      	ldr	r3, [pc, #208]	@ (8000bd8 <main+0x4f4>)
 8000b08:	681b      	ldr	r3, [r3, #0]
 8000b0a:	1ad3      	subs	r3, r2, r3
 8000b0c:	2b00      	cmp	r3, #0
 8000b0e:	bfb8      	it	lt
 8000b10:	425b      	neglt	r3, r3
 8000b12:	f5b3 7ffa 	cmp.w	r3, #500	@ 0x1f4
 8000b16:	dc04      	bgt.n	8000b22 <main+0x43e>
			  while (feedbackSpeaker != 43)
 8000b18:	4b30      	ldr	r3, [pc, #192]	@ (8000bdc <main+0x4f8>)
 8000b1a:	881b      	ldrh	r3, [r3, #0]
 8000b1c:	2b2b      	cmp	r3, #43	@ 0x2b
 8000b1e:	d1ef      	bne.n	8000b00 <main+0x41c>
 8000b20:	e000      	b.n	8000b24 <main+0x440>
				  {
					  break;
 8000b22:	bf00      	nop
				  }
			  }
			  feedbackSpeaker = 0;
 8000b24:	4b2d      	ldr	r3, [pc, #180]	@ (8000bdc <main+0x4f8>)
 8000b26:	2200      	movs	r2, #0
 8000b28:	801a      	strh	r2, [r3, #0]
			  HAL_Delay(200);
 8000b2a:	20c8      	movs	r0, #200	@ 0xc8
 8000b2c:	f000 fd02 	bl	8001534 <HAL_Delay>
			  break;
 8000b30:	e029      	b.n	8000b86 <main+0x4a2>
		  default:
			  DF_Play(speakerState[0][0]);
 8000b32:	4b2b      	ldr	r3, [pc, #172]	@ (8000be0 <main+0x4fc>)
 8000b34:	781b      	ldrb	r3, [r3, #0]
 8000b36:	4618      	mov	r0, r3
 8000b38:	f7ff fb63 	bl	8000202 <DF_Play>

//			  DF_Play_from_Folder(1, speakerState[0][0]);
			  breakTimer = HAL_GetTick();
 8000b3c:	f000 fcf0 	bl	8001520 <HAL_GetTick>
 8000b40:	4603      	mov	r3, r0
 8000b42:	4a25      	ldr	r2, [pc, #148]	@ (8000bd8 <main+0x4f4>)
 8000b44:	6013      	str	r3, [r2, #0]
			  while (feedbackSpeaker != speakerState[0][0])
 8000b46:	e00b      	b.n	8000b60 <main+0x47c>
			  {
				  if (abs(HAL_GetTick() - breakTimer) > 500)
 8000b48:	f000 fcea 	bl	8001520 <HAL_GetTick>
 8000b4c:	4602      	mov	r2, r0
 8000b4e:	4b22      	ldr	r3, [pc, #136]	@ (8000bd8 <main+0x4f4>)
 8000b50:	681b      	ldr	r3, [r3, #0]
 8000b52:	1ad3      	subs	r3, r2, r3
 8000b54:	2b00      	cmp	r3, #0
 8000b56:	bfb8      	it	lt
 8000b58:	425b      	neglt	r3, r3
 8000b5a:	f5b3 7ffa 	cmp.w	r3, #500	@ 0x1f4
 8000b5e:	dc07      	bgt.n	8000b70 <main+0x48c>
			  while (feedbackSpeaker != speakerState[0][0])
 8000b60:	4b1f      	ldr	r3, [pc, #124]	@ (8000be0 <main+0x4fc>)
 8000b62:	781b      	ldrb	r3, [r3, #0]
 8000b64:	461a      	mov	r2, r3
 8000b66:	4b1d      	ldr	r3, [pc, #116]	@ (8000bdc <main+0x4f8>)
 8000b68:	881b      	ldrh	r3, [r3, #0]
 8000b6a:	429a      	cmp	r2, r3
 8000b6c:	d1ec      	bne.n	8000b48 <main+0x464>
 8000b6e:	e000      	b.n	8000b72 <main+0x48e>
				  {
					  break;
 8000b70:	bf00      	nop
				  }
			  }
			  feedbackSpeaker = 0;
 8000b72:	4b1a      	ldr	r3, [pc, #104]	@ (8000bdc <main+0x4f8>)
 8000b74:	2200      	movs	r2, #0
 8000b76:	801a      	strh	r2, [r3, #0]
			  HAL_Delay(200);
 8000b78:	20c8      	movs	r0, #200	@ 0xc8
 8000b7a:	f000 fcdb 	bl	8001534 <HAL_Delay>
			  break;
 8000b7e:	e002      	b.n	8000b86 <main+0x4a2>
			  break;
 8000b80:	bf00      	nop
 8000b82:	e000      	b.n	8000b86 <main+0x4a2>
			  break;
 8000b84:	bf00      	nop
		  }
		  for (uint8_t i=0; i<4; i++)
 8000b86:	2300      	movs	r3, #0
 8000b88:	71bb      	strb	r3, [r7, #6]
 8000b8a:	e017      	b.n	8000bbc <main+0x4d8>
		  {
			  speakerState[i][0] = speakerState[i+1][0];
 8000b8c:	79bb      	ldrb	r3, [r7, #6]
 8000b8e:	1c5a      	adds	r2, r3, #1
 8000b90:	79bb      	ldrb	r3, [r7, #6]
 8000b92:	4913      	ldr	r1, [pc, #76]	@ (8000be0 <main+0x4fc>)
 8000b94:	f811 1012 	ldrb.w	r1, [r1, r2, lsl #1]
 8000b98:	4a11      	ldr	r2, [pc, #68]	@ (8000be0 <main+0x4fc>)
 8000b9a:	f802 1013 	strb.w	r1, [r2, r3, lsl #1]
			  speakerState[i][1] = speakerState[i+1][1];
 8000b9e:	79bb      	ldrb	r3, [r7, #6]
 8000ba0:	3301      	adds	r3, #1
 8000ba2:	79ba      	ldrb	r2, [r7, #6]
 8000ba4:	490e      	ldr	r1, [pc, #56]	@ (8000be0 <main+0x4fc>)
 8000ba6:	005b      	lsls	r3, r3, #1
 8000ba8:	440b      	add	r3, r1
 8000baa:	7858      	ldrb	r0, [r3, #1]
 8000bac:	490c      	ldr	r1, [pc, #48]	@ (8000be0 <main+0x4fc>)
 8000bae:	0053      	lsls	r3, r2, #1
 8000bb0:	440b      	add	r3, r1
 8000bb2:	4602      	mov	r2, r0
 8000bb4:	705a      	strb	r2, [r3, #1]
		  for (uint8_t i=0; i<4; i++)
 8000bb6:	79bb      	ldrb	r3, [r7, #6]
 8000bb8:	3301      	adds	r3, #1
 8000bba:	71bb      	strb	r3, [r7, #6]
 8000bbc:	79bb      	ldrb	r3, [r7, #6]
 8000bbe:	2b03      	cmp	r3, #3
 8000bc0:	d9e4      	bls.n	8000b8c <main+0x4a8>
		  }
		  speakerState[4][0] = 0;
 8000bc2:	4b07      	ldr	r3, [pc, #28]	@ (8000be0 <main+0x4fc>)
 8000bc4:	2200      	movs	r2, #0
 8000bc6:	721a      	strb	r2, [r3, #8]
		  speakerState[4][1] = 0;
 8000bc8:	4b05      	ldr	r3, [pc, #20]	@ (8000be0 <main+0x4fc>)
 8000bca:	2200      	movs	r2, #0
 8000bcc:	725a      	strb	r2, [r3, #9]
	  }
	  HAL_Delay(100);
 8000bce:	2064      	movs	r0, #100	@ 0x64
 8000bd0:	f000 fcb0 	bl	8001534 <HAL_Delay>
	  if (speakerButton[0][0] == 1)
 8000bd4:	e62a      	b.n	800082c <main+0x148>
 8000bd6:	bf00      	nop
 8000bd8:	200001c0 	.word	0x200001c0
 8000bdc:	200001ba 	.word	0x200001ba
 8000be0:	200001a8 	.word	0x200001a8
 8000be4:	2000018f 	.word	0x2000018f
 8000be8:	2000018e 	.word	0x2000018e

08000bec <SystemClock_Config>:
/**
  * @brief System Clock Configuration
  * @retval None
  */
void SystemClock_Config(void)
{
 8000bec:	b580      	push	{r7, lr}
 8000bee:	b090      	sub	sp, #64	@ 0x40
 8000bf0:	af00      	add	r7, sp, #0
  RCC_OscInitTypeDef RCC_OscInitStruct = {0};
 8000bf2:	f107 0318 	add.w	r3, r7, #24
 8000bf6:	2228      	movs	r2, #40	@ 0x28
 8000bf8:	2100      	movs	r1, #0
 8000bfa:	4618      	mov	r0, r3
 8000bfc:	f004 f81a 	bl	8004c34 <memset>
  RCC_ClkInitTypeDef RCC_ClkInitStruct = {0};
 8000c00:	1d3b      	adds	r3, r7, #4
 8000c02:	2200      	movs	r2, #0
 8000c04:	601a      	str	r2, [r3, #0]
 8000c06:	605a      	str	r2, [r3, #4]
 8000c08:	609a      	str	r2, [r3, #8]
 8000c0a:	60da      	str	r2, [r3, #12]
 8000c0c:	611a      	str	r2, [r3, #16]

  /** Initializes the RCC Oscillators according to the specified parameters
  * in the RCC_OscInitTypeDef structure.
  */
  RCC_OscInitStruct.OscillatorType = RCC_OSCILLATORTYPE_LSI|RCC_OSCILLATORTYPE_HSE;
 8000c0e:	2309      	movs	r3, #9
 8000c10:	61bb      	str	r3, [r7, #24]
  RCC_OscInitStruct.HSEState = RCC_HSE_ON;
 8000c12:	f44f 3380 	mov.w	r3, #65536	@ 0x10000
 8000c16:	61fb      	str	r3, [r7, #28]
  RCC_OscInitStruct.HSEPredivValue = RCC_HSE_PREDIV_DIV2;
 8000c18:	f44f 3300 	mov.w	r3, #131072	@ 0x20000
 8000c1c:	623b      	str	r3, [r7, #32]
  RCC_OscInitStruct.HSIState = RCC_HSI_ON;
 8000c1e:	2301      	movs	r3, #1
 8000c20:	62bb      	str	r3, [r7, #40]	@ 0x28
  RCC_OscInitStruct.LSIState = RCC_LSI_ON;
 8000c22:	2301      	movs	r3, #1
 8000c24:	633b      	str	r3, [r7, #48]	@ 0x30
  RCC_OscInitStruct.PLL.PLLState = RCC_PLL_ON;
 8000c26:	2302      	movs	r3, #2
 8000c28:	637b      	str	r3, [r7, #52]	@ 0x34
  RCC_OscInitStruct.PLL.PLLSource = RCC_PLLSOURCE_HSE;
 8000c2a:	f44f 3380 	mov.w	r3, #65536	@ 0x10000
 8000c2e:	63bb      	str	r3, [r7, #56]	@ 0x38
  RCC_OscInitStruct.PLL.PLLMUL = RCC_PLL_MUL9;
 8000c30:	f44f 13e0 	mov.w	r3, #1835008	@ 0x1c0000
 8000c34:	63fb      	str	r3, [r7, #60]	@ 0x3c
  if (HAL_RCC_OscConfig(&RCC_OscInitStruct) != HAL_OK)
 8000c36:	f107 0318 	add.w	r3, r7, #24
 8000c3a:	4618      	mov	r0, r3
 8000c3c:	f001 ffca 	bl	8002bd4 <HAL_RCC_OscConfig>
 8000c40:	4603      	mov	r3, r0
 8000c42:	2b00      	cmp	r3, #0
 8000c44:	d001      	beq.n	8000c4a <SystemClock_Config+0x5e>
  {
    Error_Handler();
 8000c46:	f000 fa65 	bl	8001114 <Error_Handler>
  }

  /** Initializes the CPU, AHB and APB buses clocks
  */
  RCC_ClkInitStruct.ClockType = RCC_CLOCKTYPE_HCLK|RCC_CLOCKTYPE_SYSCLK
 8000c4a:	230f      	movs	r3, #15
 8000c4c:	607b      	str	r3, [r7, #4]
                              |RCC_CLOCKTYPE_PCLK1|RCC_CLOCKTYPE_PCLK2;
  RCC_ClkInitStruct.SYSCLKSource = RCC_SYSCLKSOURCE_PLLCLK;
 8000c4e:	2302      	movs	r3, #2
 8000c50:	60bb      	str	r3, [r7, #8]
  RCC_ClkInitStruct.AHBCLKDivider = RCC_SYSCLK_DIV1;
 8000c52:	2300      	movs	r3, #0
 8000c54:	60fb      	str	r3, [r7, #12]
  RCC_ClkInitStruct.APB1CLKDivider = RCC_HCLK_DIV2;
 8000c56:	f44f 6380 	mov.w	r3, #1024	@ 0x400
 8000c5a:	613b      	str	r3, [r7, #16]
  RCC_ClkInitStruct.APB2CLKDivider = RCC_HCLK_DIV1;
 8000c5c:	2300      	movs	r3, #0
 8000c5e:	617b      	str	r3, [r7, #20]

  if (HAL_RCC_ClockConfig(&RCC_ClkInitStruct, FLASH_LATENCY_2) != HAL_OK)
 8000c60:	1d3b      	adds	r3, r7, #4
 8000c62:	2102      	movs	r1, #2
 8000c64:	4618      	mov	r0, r3
 8000c66:	f002 fa37 	bl	80030d8 <HAL_RCC_ClockConfig>
 8000c6a:	4603      	mov	r3, r0
 8000c6c:	2b00      	cmp	r3, #0
 8000c6e:	d001      	beq.n	8000c74 <SystemClock_Config+0x88>
  {
    Error_Handler();
 8000c70:	f000 fa50 	bl	8001114 <Error_Handler>
  }
}
 8000c74:	bf00      	nop
 8000c76:	3740      	adds	r7, #64	@ 0x40
 8000c78:	46bd      	mov	sp, r7
 8000c7a:	bd80      	pop	{r7, pc}

08000c7c <MX_CAN_Init>:
  * @brief CAN Initialization Function
  * @param None
  * @retval None
  */
static void MX_CAN_Init(void)
{
 8000c7c:	b580      	push	{r7, lr}
 8000c7e:	af00      	add	r7, sp, #0
  /* USER CODE END CAN_Init 0 */

  /* USER CODE BEGIN CAN_Init 1 */

  /* USER CODE END CAN_Init 1 */
  hcan.Instance = CAN1;
 8000c80:	4b18      	ldr	r3, [pc, #96]	@ (8000ce4 <MX_CAN_Init+0x68>)
 8000c82:	4a19      	ldr	r2, [pc, #100]	@ (8000ce8 <MX_CAN_Init+0x6c>)
 8000c84:	601a      	str	r2, [r3, #0]
  hcan.Init.Prescaler = 36;
 8000c86:	4b17      	ldr	r3, [pc, #92]	@ (8000ce4 <MX_CAN_Init+0x68>)
 8000c88:	2224      	movs	r2, #36	@ 0x24
 8000c8a:	605a      	str	r2, [r3, #4]
  hcan.Init.Mode = CAN_MODE_NORMAL;
 8000c8c:	4b15      	ldr	r3, [pc, #84]	@ (8000ce4 <MX_CAN_Init+0x68>)
 8000c8e:	2200      	movs	r2, #0
 8000c90:	609a      	str	r2, [r3, #8]
  hcan.Init.SyncJumpWidth = CAN_SJW_2TQ;
 8000c92:	4b14      	ldr	r3, [pc, #80]	@ (8000ce4 <MX_CAN_Init+0x68>)
 8000c94:	f04f 7280 	mov.w	r2, #16777216	@ 0x1000000
 8000c98:	60da      	str	r2, [r3, #12]
  hcan.Init.TimeSeg1 = CAN_BS1_6TQ;
 8000c9a:	4b12      	ldr	r3, [pc, #72]	@ (8000ce4 <MX_CAN_Init+0x68>)
 8000c9c:	f44f 22a0 	mov.w	r2, #327680	@ 0x50000
 8000ca0:	611a      	str	r2, [r3, #16]
  hcan.Init.TimeSeg2 = CAN_BS2_3TQ;
 8000ca2:	4b10      	ldr	r3, [pc, #64]	@ (8000ce4 <MX_CAN_Init+0x68>)
 8000ca4:	f44f 1200 	mov.w	r2, #2097152	@ 0x200000
 8000ca8:	615a      	str	r2, [r3, #20]
  hcan.Init.TimeTriggeredMode = DISABLE;
 8000caa:	4b0e      	ldr	r3, [pc, #56]	@ (8000ce4 <MX_CAN_Init+0x68>)
 8000cac:	2200      	movs	r2, #0
 8000cae:	761a      	strb	r2, [r3, #24]
  hcan.Init.AutoBusOff = ENABLE;
 8000cb0:	4b0c      	ldr	r3, [pc, #48]	@ (8000ce4 <MX_CAN_Init+0x68>)
 8000cb2:	2201      	movs	r2, #1
 8000cb4:	765a      	strb	r2, [r3, #25]
  hcan.Init.AutoWakeUp = DISABLE;
 8000cb6:	4b0b      	ldr	r3, [pc, #44]	@ (8000ce4 <MX_CAN_Init+0x68>)
 8000cb8:	2200      	movs	r2, #0
 8000cba:	769a      	strb	r2, [r3, #26]
  hcan.Init.AutoRetransmission = ENABLE;
 8000cbc:	4b09      	ldr	r3, [pc, #36]	@ (8000ce4 <MX_CAN_Init+0x68>)
 8000cbe:	2201      	movs	r2, #1
 8000cc0:	76da      	strb	r2, [r3, #27]
  hcan.Init.ReceiveFifoLocked = DISABLE;
 8000cc2:	4b08      	ldr	r3, [pc, #32]	@ (8000ce4 <MX_CAN_Init+0x68>)
 8000cc4:	2200      	movs	r2, #0
 8000cc6:	771a      	strb	r2, [r3, #28]
  hcan.Init.TransmitFifoPriority = DISABLE;
 8000cc8:	4b06      	ldr	r3, [pc, #24]	@ (8000ce4 <MX_CAN_Init+0x68>)
 8000cca:	2200      	movs	r2, #0
 8000ccc:	775a      	strb	r2, [r3, #29]
  if (HAL_CAN_Init(&hcan) != HAL_OK)
 8000cce:	4805      	ldr	r0, [pc, #20]	@ (8000ce4 <MX_CAN_Init+0x68>)
 8000cd0:	f000 fc54 	bl	800157c <HAL_CAN_Init>
 8000cd4:	4603      	mov	r3, r0
 8000cd6:	2b00      	cmp	r3, #0
 8000cd8:	d001      	beq.n	8000cde <MX_CAN_Init+0x62>
  {
    Error_Handler();
 8000cda:	f000 fa1b 	bl	8001114 <Error_Handler>
  }
  /* USER CODE BEGIN CAN_Init 2 */

  /* USER CODE END CAN_Init 2 */

}
 8000cde:	bf00      	nop
 8000ce0:	bd80      	pop	{r7, pc}
 8000ce2:	bf00      	nop
 8000ce4:	20000028 	.word	0x20000028
 8000ce8:	40006400 	.word	0x40006400

08000cec <MX_IWDG_Init>:
  * @brief IWDG Initialization Function
  * @param None
  * @retval None
  */
static void MX_IWDG_Init(void)
{
 8000cec:	b580      	push	{r7, lr}
 8000cee:	af00      	add	r7, sp, #0
  /* USER CODE END IWDG_Init 0 */

  /* USER CODE BEGIN IWDG_Init 1 */

  /* USER CODE END IWDG_Init 1 */
  hiwdg.Instance = IWDG;
 8000cf0:	4b09      	ldr	r3, [pc, #36]	@ (8000d18 <MX_IWDG_Init+0x2c>)
 8000cf2:	4a0a      	ldr	r2, [pc, #40]	@ (8000d1c <MX_IWDG_Init+0x30>)
 8000cf4:	601a      	str	r2, [r3, #0]
  hiwdg.Init.Prescaler = IWDG_PRESCALER_64;
 8000cf6:	4b08      	ldr	r3, [pc, #32]	@ (8000d18 <MX_IWDG_Init+0x2c>)
 8000cf8:	2204      	movs	r2, #4
 8000cfa:	605a      	str	r2, [r3, #4]
  hiwdg.Init.Reload = 4095;
 8000cfc:	4b06      	ldr	r3, [pc, #24]	@ (8000d18 <MX_IWDG_Init+0x2c>)
 8000cfe:	f640 72ff 	movw	r2, #4095	@ 0xfff
 8000d02:	609a      	str	r2, [r3, #8]
  if (HAL_IWDG_Init(&hiwdg) != HAL_OK)
 8000d04:	4804      	ldr	r0, [pc, #16]	@ (8000d18 <MX_IWDG_Init+0x2c>)
 8000d06:	f001 ff11 	bl	8002b2c <HAL_IWDG_Init>
 8000d0a:	4603      	mov	r3, r0
 8000d0c:	2b00      	cmp	r3, #0
 8000d0e:	d001      	beq.n	8000d14 <MX_IWDG_Init+0x28>
  {
    Error_Handler();
 8000d10:	f000 fa00 	bl	8001114 <Error_Handler>
  }
  /* USER CODE BEGIN IWDG_Init 2 */

  /* USER CODE END IWDG_Init 2 */

}
 8000d14:	bf00      	nop
 8000d16:	bd80      	pop	{r7, pc}
 8000d18:	20000050 	.word	0x20000050
 8000d1c:	40003000 	.word	0x40003000

08000d20 <MX_TIM3_Init>:
  * @brief TIM3 Initialization Function
  * @param None
  * @retval None
  */
static void MX_TIM3_Init(void)
{
 8000d20:	b580      	push	{r7, lr}
 8000d22:	b086      	sub	sp, #24
 8000d24:	af00      	add	r7, sp, #0

  /* USER CODE BEGIN TIM3_Init 0 */

  /* USER CODE END TIM3_Init 0 */

  TIM_ClockConfigTypeDef sClockSourceConfig = {0};
 8000d26:	f107 0308 	add.w	r3, r7, #8
 8000d2a:	2200      	movs	r2, #0
 8000d2c:	601a      	str	r2, [r3, #0]
 8000d2e:	605a      	str	r2, [r3, #4]
 8000d30:	609a      	str	r2, [r3, #8]
 8000d32:	60da      	str	r2, [r3, #12]
  TIM_MasterConfigTypeDef sMasterConfig = {0};
 8000d34:	463b      	mov	r3, r7
 8000d36:	2200      	movs	r2, #0
 8000d38:	601a      	str	r2, [r3, #0]
 8000d3a:	605a      	str	r2, [r3, #4]

  /* USER CODE BEGIN TIM3_Init 1 */

  /* USER CODE END TIM3_Init 1 */
  htim3.Instance = TIM3;
 8000d3c:	4b1d      	ldr	r3, [pc, #116]	@ (8000db4 <MX_TIM3_Init+0x94>)
 8000d3e:	4a1e      	ldr	r2, [pc, #120]	@ (8000db8 <MX_TIM3_Init+0x98>)
 8000d40:	601a      	str	r2, [r3, #0]
  htim3.Init.Prescaler = 35999;
 8000d42:	4b1c      	ldr	r3, [pc, #112]	@ (8000db4 <MX_TIM3_Init+0x94>)
 8000d44:	f648 429f 	movw	r2, #35999	@ 0x8c9f
 8000d48:	605a      	str	r2, [r3, #4]
  htim3.Init.CounterMode = TIM_COUNTERMODE_UP;
 8000d4a:	4b1a      	ldr	r3, [pc, #104]	@ (8000db4 <MX_TIM3_Init+0x94>)
 8000d4c:	2200      	movs	r2, #0
 8000d4e:	609a      	str	r2, [r3, #8]
  htim3.Init.Period = 999;
 8000d50:	4b18      	ldr	r3, [pc, #96]	@ (8000db4 <MX_TIM3_Init+0x94>)
 8000d52:	f240 32e7 	movw	r2, #999	@ 0x3e7
 8000d56:	60da      	str	r2, [r3, #12]
  htim3.Init.ClockDivision = TIM_CLOCKDIVISION_DIV1;
 8000d58:	4b16      	ldr	r3, [pc, #88]	@ (8000db4 <MX_TIM3_Init+0x94>)
 8000d5a:	2200      	movs	r2, #0
 8000d5c:	611a      	str	r2, [r3, #16]
  htim3.Init.AutoReloadPreload = TIM_AUTORELOAD_PRELOAD_DISABLE;
 8000d5e:	4b15      	ldr	r3, [pc, #84]	@ (8000db4 <MX_TIM3_Init+0x94>)
 8000d60:	2200      	movs	r2, #0
 8000d62:	619a      	str	r2, [r3, #24]
  if (HAL_TIM_Base_Init(&htim3) != HAL_OK)
 8000d64:	4813      	ldr	r0, [pc, #76]	@ (8000db4 <MX_TIM3_Init+0x94>)
 8000d66:	f002 fb47 	bl	80033f8 <HAL_TIM_Base_Init>
 8000d6a:	4603      	mov	r3, r0
 8000d6c:	2b00      	cmp	r3, #0
 8000d6e:	d001      	beq.n	8000d74 <MX_TIM3_Init+0x54>
  {
    Error_Handler();
 8000d70:	f000 f9d0 	bl	8001114 <Error_Handler>
  }
  sClockSourceConfig.ClockSource = TIM_CLOCKSOURCE_INTERNAL;
 8000d74:	f44f 5380 	mov.w	r3, #4096	@ 0x1000
 8000d78:	60bb      	str	r3, [r7, #8]
  if (HAL_TIM_ConfigClockSource(&htim3, &sClockSourceConfig) != HAL_OK)
 8000d7a:	f107 0308 	add.w	r3, r7, #8
 8000d7e:	4619      	mov	r1, r3
 8000d80:	480c      	ldr	r0, [pc, #48]	@ (8000db4 <MX_TIM3_Init+0x94>)
 8000d82:	f002 fccb 	bl	800371c <HAL_TIM_ConfigClockSource>
 8000d86:	4603      	mov	r3, r0
 8000d88:	2b00      	cmp	r3, #0
 8000d8a:	d001      	beq.n	8000d90 <MX_TIM3_Init+0x70>
  {
    Error_Handler();
 8000d8c:	f000 f9c2 	bl	8001114 <Error_Handler>
  }
  sMasterConfig.MasterOutputTrigger = TIM_TRGO_RESET;
 8000d90:	2300      	movs	r3, #0
 8000d92:	603b      	str	r3, [r7, #0]
  sMasterConfig.MasterSlaveMode = TIM_MASTERSLAVEMODE_DISABLE;
 8000d94:	2300      	movs	r3, #0
 8000d96:	607b      	str	r3, [r7, #4]
  if (HAL_TIMEx_MasterConfigSynchronization(&htim3, &sMasterConfig) != HAL_OK)
 8000d98:	463b      	mov	r3, r7
 8000d9a:	4619      	mov	r1, r3
 8000d9c:	4805      	ldr	r0, [pc, #20]	@ (8000db4 <MX_TIM3_Init+0x94>)
 8000d9e:	f002 fead 	bl	8003afc <HAL_TIMEx_MasterConfigSynchronization>
 8000da2:	4603      	mov	r3, r0
 8000da4:	2b00      	cmp	r3, #0
 8000da6:	d001      	beq.n	8000dac <MX_TIM3_Init+0x8c>
  {
    Error_Handler();
 8000da8:	f000 f9b4 	bl	8001114 <Error_Handler>
  }
  /* USER CODE BEGIN TIM3_Init 2 */

  /* USER CODE END TIM3_Init 2 */

}
 8000dac:	bf00      	nop
 8000dae:	3718      	adds	r7, #24
 8000db0:	46bd      	mov	sp, r7
 8000db2:	bd80      	pop	{r7, pc}
 8000db4:	2000005c 	.word	0x2000005c
 8000db8:	40000400 	.word	0x40000400

08000dbc <MX_USART2_UART_Init>:
  * @brief USART2 Initialization Function
  * @param None
  * @retval None
  */
static void MX_USART2_UART_Init(void)
{
 8000dbc:	b580      	push	{r7, lr}
 8000dbe:	af00      	add	r7, sp, #0
  /* USER CODE END USART2_Init 0 */

  /* USER CODE BEGIN USART2_Init 1 */

  /* USER CODE END USART2_Init 1 */
  huart2.Instance = USART2;
 8000dc0:	4b11      	ldr	r3, [pc, #68]	@ (8000e08 <MX_USART2_UART_Init+0x4c>)
 8000dc2:	4a12      	ldr	r2, [pc, #72]	@ (8000e0c <MX_USART2_UART_Init+0x50>)
 8000dc4:	601a      	str	r2, [r3, #0]
  huart2.Init.BaudRate = 9600;
 8000dc6:	4b10      	ldr	r3, [pc, #64]	@ (8000e08 <MX_USART2_UART_Init+0x4c>)
 8000dc8:	f44f 5216 	mov.w	r2, #9600	@ 0x2580
 8000dcc:	605a      	str	r2, [r3, #4]
  huart2.Init.WordLength = UART_WORDLENGTH_8B;
 8000dce:	4b0e      	ldr	r3, [pc, #56]	@ (8000e08 <MX_USART2_UART_Init+0x4c>)
 8000dd0:	2200      	movs	r2, #0
 8000dd2:	609a      	str	r2, [r3, #8]
  huart2.Init.StopBits = UART_STOPBITS_1;
 8000dd4:	4b0c      	ldr	r3, [pc, #48]	@ (8000e08 <MX_USART2_UART_Init+0x4c>)
 8000dd6:	2200      	movs	r2, #0
 8000dd8:	60da      	str	r2, [r3, #12]
  huart2.Init.Parity = UART_PARITY_NONE;
 8000dda:	4b0b      	ldr	r3, [pc, #44]	@ (8000e08 <MX_USART2_UART_Init+0x4c>)
 8000ddc:	2200      	movs	r2, #0
 8000dde:	611a      	str	r2, [r3, #16]
  huart2.Init.Mode = UART_MODE_TX_RX;
 8000de0:	4b09      	ldr	r3, [pc, #36]	@ (8000e08 <MX_USART2_UART_Init+0x4c>)
 8000de2:	220c      	movs	r2, #12
 8000de4:	615a      	str	r2, [r3, #20]
  huart2.Init.HwFlowCtl = UART_HWCONTROL_NONE;
 8000de6:	4b08      	ldr	r3, [pc, #32]	@ (8000e08 <MX_USART2_UART_Init+0x4c>)
 8000de8:	2200      	movs	r2, #0
 8000dea:	619a      	str	r2, [r3, #24]
  huart2.Init.OverSampling = UART_OVERSAMPLING_16;
 8000dec:	4b06      	ldr	r3, [pc, #24]	@ (8000e08 <MX_USART2_UART_Init+0x4c>)
 8000dee:	2200      	movs	r2, #0
 8000df0:	61da      	str	r2, [r3, #28]
  if (HAL_UART_Init(&huart2) != HAL_OK)
 8000df2:	4805      	ldr	r0, [pc, #20]	@ (8000e08 <MX_USART2_UART_Init+0x4c>)
 8000df4:	f002 fef2 	bl	8003bdc <HAL_UART_Init>
 8000df8:	4603      	mov	r3, r0
 8000dfa:	2b00      	cmp	r3, #0
 8000dfc:	d001      	beq.n	8000e02 <MX_USART2_UART_Init+0x46>
  {
    Error_Handler();
 8000dfe:	f000 f989 	bl	8001114 <Error_Handler>
  }
  /* USER CODE BEGIN USART2_Init 2 */

  /* USER CODE END USART2_Init 2 */

}
 8000e02:	bf00      	nop
 8000e04:	bd80      	pop	{r7, pc}
 8000e06:	bf00      	nop
 8000e08:	200000a4 	.word	0x200000a4
 8000e0c:	40004400 	.word	0x40004400

08000e10 <MX_DMA_Init>:

/**
  * Enable DMA controller clock
  */
static void MX_DMA_Init(void)
{
 8000e10:	b580      	push	{r7, lr}
 8000e12:	b082      	sub	sp, #8
 8000e14:	af00      	add	r7, sp, #0

  /* DMA controller clock enable */
  __HAL_RCC_DMA1_CLK_ENABLE();
 8000e16:	4b0c      	ldr	r3, [pc, #48]	@ (8000e48 <MX_DMA_Init+0x38>)
 8000e18:	695b      	ldr	r3, [r3, #20]
 8000e1a:	4a0b      	ldr	r2, [pc, #44]	@ (8000e48 <MX_DMA_Init+0x38>)
 8000e1c:	f043 0301 	orr.w	r3, r3, #1
 8000e20:	6153      	str	r3, [r2, #20]
 8000e22:	4b09      	ldr	r3, [pc, #36]	@ (8000e48 <MX_DMA_Init+0x38>)
 8000e24:	695b      	ldr	r3, [r3, #20]
 8000e26:	f003 0301 	and.w	r3, r3, #1
 8000e2a:	607b      	str	r3, [r7, #4]
 8000e2c:	687b      	ldr	r3, [r7, #4]

  /* DMA interrupt init */
  /* DMA1_Channel6_IRQn interrupt configuration */
  HAL_NVIC_SetPriority(DMA1_Channel6_IRQn, 0, 0);
 8000e2e:	2200      	movs	r2, #0
 8000e30:	2100      	movs	r1, #0
 8000e32:	2010      	movs	r0, #16
 8000e34:	f001 fa01 	bl	800223a <HAL_NVIC_SetPriority>
  HAL_NVIC_EnableIRQ(DMA1_Channel6_IRQn);
 8000e38:	2010      	movs	r0, #16
 8000e3a:	f001 fa1a 	bl	8002272 <HAL_NVIC_EnableIRQ>

}
 8000e3e:	bf00      	nop
 8000e40:	3708      	adds	r7, #8
 8000e42:	46bd      	mov	sp, r7
 8000e44:	bd80      	pop	{r7, pc}
 8000e46:	bf00      	nop
 8000e48:	40021000 	.word	0x40021000

08000e4c <MX_GPIO_Init>:
  * @brief GPIO Initialization Function
  * @param None
  * @retval None
  */
static void MX_GPIO_Init(void)
{
 8000e4c:	b580      	push	{r7, lr}
 8000e4e:	b088      	sub	sp, #32
 8000e50:	af00      	add	r7, sp, #0
  GPIO_InitTypeDef GPIO_InitStruct = {0};
 8000e52:	f107 0310 	add.w	r3, r7, #16
 8000e56:	2200      	movs	r2, #0
 8000e58:	601a      	str	r2, [r3, #0]
 8000e5a:	605a      	str	r2, [r3, #4]
 8000e5c:	609a      	str	r2, [r3, #8]
 8000e5e:	60da      	str	r2, [r3, #12]
  /* USER CODE BEGIN MX_GPIO_Init_1 */
  /* USER CODE END MX_GPIO_Init_1 */

  /* GPIO Ports Clock Enable */
  __HAL_RCC_GPIOD_CLK_ENABLE();
 8000e60:	4b1e      	ldr	r3, [pc, #120]	@ (8000edc <MX_GPIO_Init+0x90>)
 8000e62:	699b      	ldr	r3, [r3, #24]
 8000e64:	4a1d      	ldr	r2, [pc, #116]	@ (8000edc <MX_GPIO_Init+0x90>)
 8000e66:	f043 0320 	orr.w	r3, r3, #32
 8000e6a:	6193      	str	r3, [r2, #24]
 8000e6c:	4b1b      	ldr	r3, [pc, #108]	@ (8000edc <MX_GPIO_Init+0x90>)
 8000e6e:	699b      	ldr	r3, [r3, #24]
 8000e70:	f003 0320 	and.w	r3, r3, #32
 8000e74:	60fb      	str	r3, [r7, #12]
 8000e76:	68fb      	ldr	r3, [r7, #12]
  __HAL_RCC_GPIOA_CLK_ENABLE();
 8000e78:	4b18      	ldr	r3, [pc, #96]	@ (8000edc <MX_GPIO_Init+0x90>)
 8000e7a:	699b      	ldr	r3, [r3, #24]
 8000e7c:	4a17      	ldr	r2, [pc, #92]	@ (8000edc <MX_GPIO_Init+0x90>)
 8000e7e:	f043 0304 	orr.w	r3, r3, #4
 8000e82:	6193      	str	r3, [r2, #24]
 8000e84:	4b15      	ldr	r3, [pc, #84]	@ (8000edc <MX_GPIO_Init+0x90>)
 8000e86:	699b      	ldr	r3, [r3, #24]
 8000e88:	f003 0304 	and.w	r3, r3, #4
 8000e8c:	60bb      	str	r3, [r7, #8]
 8000e8e:	68bb      	ldr	r3, [r7, #8]
  __HAL_RCC_GPIOB_CLK_ENABLE();
 8000e90:	4b12      	ldr	r3, [pc, #72]	@ (8000edc <MX_GPIO_Init+0x90>)
 8000e92:	699b      	ldr	r3, [r3, #24]
 8000e94:	4a11      	ldr	r2, [pc, #68]	@ (8000edc <MX_GPIO_Init+0x90>)
 8000e96:	f043 0308 	orr.w	r3, r3, #8
 8000e9a:	6193      	str	r3, [r2, #24]
 8000e9c:	4b0f      	ldr	r3, [pc, #60]	@ (8000edc <MX_GPIO_Init+0x90>)
 8000e9e:	699b      	ldr	r3, [r3, #24]
 8000ea0:	f003 0308 	and.w	r3, r3, #8
 8000ea4:	607b      	str	r3, [r7, #4]
 8000ea6:	687b      	ldr	r3, [r7, #4]

  /*Configure GPIO pin Output Level */
  HAL_GPIO_WritePin(S_CAN_GPIO_Port, S_CAN_Pin, GPIO_PIN_RESET);
 8000ea8:	2200      	movs	r2, #0
 8000eaa:	f44f 5180 	mov.w	r1, #4096	@ 0x1000
 8000eae:	480c      	ldr	r0, [pc, #48]	@ (8000ee0 <MX_GPIO_Init+0x94>)
 8000eb0:	f001 fe24 	bl	8002afc <HAL_GPIO_WritePin>

  /*Configure GPIO pin : S_CAN_Pin */
  GPIO_InitStruct.Pin = S_CAN_Pin;
 8000eb4:	f44f 5380 	mov.w	r3, #4096	@ 0x1000
 8000eb8:	613b      	str	r3, [r7, #16]
  GPIO_InitStruct.Mode = GPIO_MODE_OUTPUT_PP;
 8000eba:	2301      	movs	r3, #1
 8000ebc:	617b      	str	r3, [r7, #20]
  GPIO_InitStruct.Pull = GPIO_NOPULL;
 8000ebe:	2300      	movs	r3, #0
 8000ec0:	61bb      	str	r3, [r7, #24]
  GPIO_InitStruct.Speed = GPIO_SPEED_FREQ_LOW;
 8000ec2:	2302      	movs	r3, #2
 8000ec4:	61fb      	str	r3, [r7, #28]
  HAL_GPIO_Init(S_CAN_GPIO_Port, &GPIO_InitStruct);
 8000ec6:	f107 0310 	add.w	r3, r7, #16
 8000eca:	4619      	mov	r1, r3
 8000ecc:	4804      	ldr	r0, [pc, #16]	@ (8000ee0 <MX_GPIO_Init+0x94>)
 8000ece:	f001 fc91 	bl	80027f4 <HAL_GPIO_Init>

  /* USER CODE BEGIN MX_GPIO_Init_2 */
  /* USER CODE END MX_GPIO_Init_2 */
}
 8000ed2:	bf00      	nop
 8000ed4:	3720      	adds	r7, #32
 8000ed6:	46bd      	mov	sp, r7
 8000ed8:	bd80      	pop	{r7, pc}
 8000eda:	bf00      	nop
 8000edc:	40021000 	.word	0x40021000
 8000ee0:	40010c00 	.word	0x40010c00

08000ee4 <Set_speed_can>:

/* USER CODE BEGIN 4 */

void Set_speed_can(CAN_HandleTypeDef hcan, bool detect_speed, uint8_t speed)
{
 8000ee4:	b084      	sub	sp, #16
 8000ee6:	b580      	push	{r7, lr}
 8000ee8:	b08a      	sub	sp, #40	@ 0x28
 8000eea:	af00      	add	r7, sp, #0
 8000eec:	f107 0c30 	add.w	ip, r7, #48	@ 0x30
 8000ef0:	e88c 000f 	stmia.w	ip, {r0, r1, r2, r3}
	hcan.Init.Mode = CAN_MODE_SILENT;
 8000ef4:	f04f 4300 	mov.w	r3, #2147483648	@ 0x80000000
 8000ef8:	63bb      	str	r3, [r7, #56]	@ 0x38
	if (speed == 1)
 8000efa:	f897 305c 	ldrb.w	r3, [r7, #92]	@ 0x5c
 8000efe:	2b01      	cmp	r3, #1
 8000f00:	d108      	bne.n	8000f14 <Set_speed_can+0x30>
	{
		hcan.Init.Prescaler = 30;
 8000f02:	231e      	movs	r3, #30
 8000f04:	637b      	str	r3, [r7, #52]	@ 0x34
		hcan.Init.TimeSeg1 = CAN_BS1_8TQ;
 8000f06:	f44f 23e0 	mov.w	r3, #458752	@ 0x70000
 8000f0a:	643b      	str	r3, [r7, #64]	@ 0x40
		hcan.Init.TimeSeg2 = CAN_BS2_3TQ;
 8000f0c:	f44f 1300 	mov.w	r3, #2097152	@ 0x200000
 8000f10:	647b      	str	r3, [r7, #68]	@ 0x44
 8000f12:	e018      	b.n	8000f46 <Set_speed_can+0x62>
	} else if (speed == 2)
 8000f14:	f897 305c 	ldrb.w	r3, [r7, #92]	@ 0x5c
 8000f18:	2b02      	cmp	r3, #2
 8000f1a:	d108      	bne.n	8000f2e <Set_speed_can+0x4a>
	{
		hcan.Init.Prescaler = 40;
 8000f1c:	2328      	movs	r3, #40	@ 0x28
 8000f1e:	637b      	str	r3, [r7, #52]	@ 0x34
		hcan.Init.TimeSeg1 = CAN_BS1_12TQ;
 8000f20:	f44f 2330 	mov.w	r3, #720896	@ 0xb0000
 8000f24:	643b      	str	r3, [r7, #64]	@ 0x40
		hcan.Init.TimeSeg2 = CAN_BS2_5TQ;
 8000f26:	f44f 0380 	mov.w	r3, #4194304	@ 0x400000
 8000f2a:	647b      	str	r3, [r7, #68]	@ 0x44
 8000f2c:	e00b      	b.n	8000f46 <Set_speed_can+0x62>
	} else if (speed == 3)
 8000f2e:	f897 305c 	ldrb.w	r3, [r7, #92]	@ 0x5c
 8000f32:	2b03      	cmp	r3, #3
 8000f34:	d107      	bne.n	8000f46 <Set_speed_can+0x62>
	{
		hcan.Init.Prescaler = 60;//80
 8000f36:	233c      	movs	r3, #60	@ 0x3c
 8000f38:	637b      	str	r3, [r7, #52]	@ 0x34
		hcan.Init.TimeSeg1 = CAN_BS1_16TQ;//15
 8000f3a:	f44f 2370 	mov.w	r3, #983040	@ 0xf0000
 8000f3e:	643b      	str	r3, [r7, #64]	@ 0x40
		hcan.Init.TimeSeg2 = CAN_BS2_7TQ;//2
 8000f40:	f44f 03c0 	mov.w	r3, #6291456	@ 0x600000
 8000f44:	647b      	str	r3, [r7, #68]	@ 0x44
	}
	hcan.Init.AutoRetransmission = ENABLE;
 8000f46:	2301      	movs	r3, #1
 8000f48:	f887 304b 	strb.w	r3, [r7, #75]	@ 0x4b
	hcan.Init.SyncJumpWidth = CAN_SJW_3TQ;
 8000f4c:	f04f 7300 	mov.w	r3, #33554432	@ 0x2000000
 8000f50:	63fb      	str	r3, [r7, #60]	@ 0x3c
	hcan.Init.AutoBusOff = ENABLE;
 8000f52:	2301      	movs	r3, #1
 8000f54:	f887 3049 	strb.w	r3, [r7, #73]	@ 0x49

	HAL_CAN_Init(&hcan);
 8000f58:	f107 0030 	add.w	r0, r7, #48	@ 0x30
 8000f5c:	f000 fb0e 	bl	800157c <HAL_CAN_Init>
	if (detect_speed)
 8000f60:	f897 3058 	ldrb.w	r3, [r7, #88]	@ 0x58
 8000f64:	2b00      	cmp	r3, #0
 8000f66:	d051      	beq.n	800100c <Set_speed_can+0x128>
	{
		CAN_FilterTypeDef canfilterconfig;
		canfilterconfig.FilterActivation = CAN_FILTER_ENABLE;
 8000f68:	2301      	movs	r3, #1
 8000f6a:	623b      	str	r3, [r7, #32]
		canfilterconfig.FilterBank = 0;
 8000f6c:	2300      	movs	r3, #0
 8000f6e:	617b      	str	r3, [r7, #20]
		canfilterconfig.FilterFIFOAssignment = CAN_FILTER_FIFO0;
 8000f70:	2300      	movs	r3, #0
 8000f72:	613b      	str	r3, [r7, #16]
		canfilterconfig.FilterIdHigh = 0x501<<5;
 8000f74:	f24a 0320 	movw	r3, #40992	@ 0xa020
 8000f78:	603b      	str	r3, [r7, #0]
		canfilterconfig.FilterIdLow = 0;
 8000f7a:	2300      	movs	r3, #0
 8000f7c:	607b      	str	r3, [r7, #4]
		canfilterconfig.FilterMaskIdHigh = 0xFFF<<5;
 8000f7e:	4b38      	ldr	r3, [pc, #224]	@ (8001060 <Set_speed_can+0x17c>)
 8000f80:	60bb      	str	r3, [r7, #8]
		canfilterconfig.FilterMaskIdLow = 0;
 8000f82:	2300      	movs	r3, #0
 8000f84:	60fb      	str	r3, [r7, #12]
		canfilterconfig.FilterMode = CAN_FILTERMODE_IDMASK;
 8000f86:	2300      	movs	r3, #0
 8000f88:	61bb      	str	r3, [r7, #24]
		canfilterconfig.FilterScale = CAN_FILTERSCALE_32BIT;
 8000f8a:	2301      	movs	r3, #1
 8000f8c:	61fb      	str	r3, [r7, #28]
		canfilterconfig.SlaveStartFilterBank = 14;
 8000f8e:	230e      	movs	r3, #14
 8000f90:	627b      	str	r3, [r7, #36]	@ 0x24
		HAL_CAN_ConfigFilter(&hcan, &canfilterconfig);
 8000f92:	463b      	mov	r3, r7
 8000f94:	4619      	mov	r1, r3
 8000f96:	f107 0030 	add.w	r0, r7, #48	@ 0x30
 8000f9a:	f000 fbea 	bl	8001772 <HAL_CAN_ConfigFilter>
		canfilterconfig.FilterActivation = CAN_FILTER_ENABLE;
 8000f9e:	2301      	movs	r3, #1
 8000fa0:	623b      	str	r3, [r7, #32]
		canfilterconfig.FilterBank = 1;
 8000fa2:	2301      	movs	r3, #1
 8000fa4:	617b      	str	r3, [r7, #20]
		canfilterconfig.FilterFIFOAssignment = CAN_FILTER_FIFO0;
 8000fa6:	2300      	movs	r3, #0
 8000fa8:	613b      	str	r3, [r7, #16]
		canfilterconfig.FilterIdHigh = 0x502<<5;
 8000faa:	f24a 0340 	movw	r3, #41024	@ 0xa040
 8000fae:	603b      	str	r3, [r7, #0]
		canfilterconfig.FilterIdLow = 0;
 8000fb0:	2300      	movs	r3, #0
 8000fb2:	607b      	str	r3, [r7, #4]
		canfilterconfig.FilterMaskIdHigh = 0xFFF<<5;
 8000fb4:	4b2a      	ldr	r3, [pc, #168]	@ (8001060 <Set_speed_can+0x17c>)
 8000fb6:	60bb      	str	r3, [r7, #8]
		canfilterconfig.FilterMaskIdLow = 0;
 8000fb8:	2300      	movs	r3, #0
 8000fba:	60fb      	str	r3, [r7, #12]
		canfilterconfig.FilterMode = CAN_FILTERMODE_IDMASK;
 8000fbc:	2300      	movs	r3, #0
 8000fbe:	61bb      	str	r3, [r7, #24]
		canfilterconfig.FilterScale = CAN_FILTERSCALE_32BIT;
 8000fc0:	2301      	movs	r3, #1
 8000fc2:	61fb      	str	r3, [r7, #28]
		canfilterconfig.SlaveStartFilterBank = 14;
 8000fc4:	230e      	movs	r3, #14
 8000fc6:	627b      	str	r3, [r7, #36]	@ 0x24
		HAL_CAN_ConfigFilter(&hcan, &canfilterconfig);
 8000fc8:	463b      	mov	r3, r7
 8000fca:	4619      	mov	r1, r3
 8000fcc:	f107 0030 	add.w	r0, r7, #48	@ 0x30
 8000fd0:	f000 fbcf 	bl	8001772 <HAL_CAN_ConfigFilter>
		canfilterconfig.FilterActivation = CAN_FILTER_ENABLE;
 8000fd4:	2301      	movs	r3, #1
 8000fd6:	623b      	str	r3, [r7, #32]
		canfilterconfig.FilterBank = 3;
 8000fd8:	2303      	movs	r3, #3
 8000fda:	617b      	str	r3, [r7, #20]
		canfilterconfig.FilterFIFOAssignment = CAN_FILTER_FIFO0;
 8000fdc:	2300      	movs	r3, #0
 8000fde:	613b      	str	r3, [r7, #16]
		canfilterconfig.FilterIdHigh = 0x503<<5;
 8000fe0:	f24a 0360 	movw	r3, #41056	@ 0xa060
 8000fe4:	603b      	str	r3, [r7, #0]
		canfilterconfig.FilterIdLow = 0;
 8000fe6:	2300      	movs	r3, #0
 8000fe8:	607b      	str	r3, [r7, #4]
		canfilterconfig.FilterMaskIdHigh = 0xFFF<<5;
 8000fea:	4b1d      	ldr	r3, [pc, #116]	@ (8001060 <Set_speed_can+0x17c>)
 8000fec:	60bb      	str	r3, [r7, #8]
		canfilterconfig.FilterMaskIdLow = 0;
 8000fee:	2300      	movs	r3, #0
 8000ff0:	60fb      	str	r3, [r7, #12]
		canfilterconfig.FilterMode = CAN_FILTERMODE_IDMASK;
 8000ff2:	2300      	movs	r3, #0
 8000ff4:	61bb      	str	r3, [r7, #24]
		canfilterconfig.FilterScale = CAN_FILTERSCALE_32BIT;
 8000ff6:	2301      	movs	r3, #1
 8000ff8:	61fb      	str	r3, [r7, #28]
		canfilterconfig.SlaveStartFilterBank = 14;
 8000ffa:	230e      	movs	r3, #14
 8000ffc:	627b      	str	r3, [r7, #36]	@ 0x24
		HAL_CAN_ConfigFilter(&hcan, &canfilterconfig);
 8000ffe:	463b      	mov	r3, r7
 8001000:	4619      	mov	r1, r3
 8001002:	f107 0030 	add.w	r0, r7, #48	@ 0x30
 8001006:	f000 fbb4 	bl	8001772 <HAL_CAN_ConfigFilter>
 800100a:	e019      	b.n	8001040 <Set_speed_can+0x15c>
	} else
	{
		CAN_FilterTypeDef canfilterconfig;
		canfilterconfig.FilterActivation = CAN_FILTER_ENABLE;
 800100c:	2301      	movs	r3, #1
 800100e:	623b      	str	r3, [r7, #32]
		canfilterconfig.FilterBank = 0;
 8001010:	2300      	movs	r3, #0
 8001012:	617b      	str	r3, [r7, #20]
		canfilterconfig.FilterFIFOAssignment = CAN_FILTER_FIFO0;
 8001014:	2300      	movs	r3, #0
 8001016:	613b      	str	r3, [r7, #16]
		canfilterconfig.FilterIdHigh = 0<<5;
 8001018:	2300      	movs	r3, #0
 800101a:	603b      	str	r3, [r7, #0]
		canfilterconfig.FilterIdLow = 0;
 800101c:	2300      	movs	r3, #0
 800101e:	607b      	str	r3, [r7, #4]
		canfilterconfig.FilterMaskIdHigh = 0<<5;
 8001020:	2300      	movs	r3, #0
 8001022:	60bb      	str	r3, [r7, #8]
		canfilterconfig.FilterMaskIdLow = 0;
 8001024:	2300      	movs	r3, #0
 8001026:	60fb      	str	r3, [r7, #12]
		canfilterconfig.FilterMode = CAN_FILTERMODE_IDMASK;
 8001028:	2300      	movs	r3, #0
 800102a:	61bb      	str	r3, [r7, #24]
		canfilterconfig.FilterScale = CAN_FILTERSCALE_32BIT;
 800102c:	2301      	movs	r3, #1
 800102e:	61fb      	str	r3, [r7, #28]
		canfilterconfig.SlaveStartFilterBank = 14;
 8001030:	230e      	movs	r3, #14
 8001032:	627b      	str	r3, [r7, #36]	@ 0x24
		HAL_CAN_ConfigFilter(&hcan, &canfilterconfig);
 8001034:	463b      	mov	r3, r7
 8001036:	4619      	mov	r1, r3
 8001038:	f107 0030 	add.w	r0, r7, #48	@ 0x30
 800103c:	f000 fb99 	bl	8001772 <HAL_CAN_ConfigFilter>
	}
	HAL_CAN_Start(&hcan);
 8001040:	f107 0030 	add.w	r0, r7, #48	@ 0x30
 8001044:	f000 fc5e 	bl	8001904 <HAL_CAN_Start>
	HAL_CAN_ActivateNotification(&hcan, CAN_IT_RX_FIFO0_MSG_PENDING);
 8001048:	2102      	movs	r1, #2
 800104a:	f107 0030 	add.w	r0, r7, #48	@ 0x30
 800104e:	f000 fdbe 	bl	8001bce <HAL_CAN_ActivateNotification>
}
 8001052:	bf00      	nop
 8001054:	3728      	adds	r7, #40	@ 0x28
 8001056:	46bd      	mov	sp, r7
 8001058:	e8bd 4080 	ldmia.w	sp!, {r7, lr}
 800105c:	b004      	add	sp, #16
 800105e:	4770      	bx	lr
 8001060:	0001ffe0 	.word	0x0001ffe0

08001064 <speaker_floor>:
void speaker_floor(uint8_t tenFloor, uint8_t oneFloor)
{
 8001064:	b580      	push	{r7, lr}
 8001066:	b084      	sub	sp, #16
 8001068:	af00      	add	r7, sp, #0
 800106a:	4603      	mov	r3, r0
 800106c:	460a      	mov	r2, r1
 800106e:	71fb      	strb	r3, [r7, #7]
 8001070:	4613      	mov	r3, r2
 8001072:	71bb      	strb	r3, [r7, #6]
	uint16_t floor;
	if (tenFloor == 0x48) // H
 8001074:	79fb      	ldrb	r3, [r7, #7]
 8001076:	2b48      	cmp	r3, #72	@ 0x48
 8001078:	d10b      	bne.n	8001092 <speaker_floor+0x2e>
	{
		if (oneFloor == 0x31)
 800107a:	79bb      	ldrb	r3, [r7, #6]
 800107c:	2b31      	cmp	r3, #49	@ 0x31
 800107e:	d102      	bne.n	8001086 <speaker_floor+0x22>
		{
			floor = 33;
 8001080:	2321      	movs	r3, #33	@ 0x21
 8001082:	81fb      	strh	r3, [r7, #14]
 8001084:	e01b      	b.n	80010be <speaker_floor+0x5a>
		} else if (oneFloor == 0x32)
 8001086:	79bb      	ldrb	r3, [r7, #6]
 8001088:	2b32      	cmp	r3, #50	@ 0x32
 800108a:	d118      	bne.n	80010be <speaker_floor+0x5a>
		{
			floor = 34;
 800108c:	2322      	movs	r3, #34	@ 0x22
 800108e:	81fb      	strh	r3, [r7, #14]
 8001090:	e015      	b.n	80010be <speaker_floor+0x5a>
		}
	} else if (tenFloor == 0x20)
 8001092:	79fb      	ldrb	r3, [r7, #7]
 8001094:	2b20      	cmp	r3, #32
 8001096:	d104      	bne.n	80010a2 <speaker_floor+0x3e>
	{
		floor = oneFloor - 0x30;
 8001098:	79bb      	ldrb	r3, [r7, #6]
 800109a:	b29b      	uxth	r3, r3
 800109c:	3b30      	subs	r3, #48	@ 0x30
 800109e:	81fb      	strh	r3, [r7, #14]
 80010a0:	e00d      	b.n	80010be <speaker_floor+0x5a>
	} else
	{
		floor = (tenFloor - 0x30)*10 + (oneFloor - 0x30);
 80010a2:	79fb      	ldrb	r3, [r7, #7]
 80010a4:	3b30      	subs	r3, #48	@ 0x30
 80010a6:	b29b      	uxth	r3, r3
 80010a8:	461a      	mov	r2, r3
 80010aa:	0092      	lsls	r2, r2, #2
 80010ac:	4413      	add	r3, r2
 80010ae:	005b      	lsls	r3, r3, #1
 80010b0:	b29a      	uxth	r2, r3
 80010b2:	79bb      	ldrb	r3, [r7, #6]
 80010b4:	b29b      	uxth	r3, r3
 80010b6:	4413      	add	r3, r2
 80010b8:	b29b      	uxth	r3, r3
 80010ba:	3b30      	subs	r3, #48	@ 0x30
 80010bc:	81fb      	strh	r3, [r7, #14]
	}
	DF_Play(floor);
 80010be:	89fb      	ldrh	r3, [r7, #14]
 80010c0:	b2db      	uxtb	r3, r3
 80010c2:	4618      	mov	r0, r3
 80010c4:	f7ff f89d 	bl	8000202 <DF_Play>
//	HAL_Delay(1200);
	breakTimer = HAL_GetTick();
 80010c8:	f000 fa2a 	bl	8001520 <HAL_GetTick>
 80010cc:	4603      	mov	r3, r0
 80010ce:	4a0f      	ldr	r2, [pc, #60]	@ (800110c <speaker_floor+0xa8>)
 80010d0:	6013      	str	r3, [r2, #0]
	while (feedbackSpeaker != floor)
 80010d2:	e00c      	b.n	80010ee <speaker_floor+0x8a>
	{
		if (abs(HAL_GetTick() - breakTimer) > 1500)
 80010d4:	f000 fa24 	bl	8001520 <HAL_GetTick>
 80010d8:	4602      	mov	r2, r0
 80010da:	4b0c      	ldr	r3, [pc, #48]	@ (800110c <speaker_floor+0xa8>)
 80010dc:	681b      	ldr	r3, [r3, #0]
 80010de:	1ad3      	subs	r3, r2, r3
 80010e0:	2b00      	cmp	r3, #0
 80010e2:	bfb8      	it	lt
 80010e4:	425b      	neglt	r3, r3
 80010e6:	f240 52dc 	movw	r2, #1500	@ 0x5dc
 80010ea:	4293      	cmp	r3, r2
 80010ec:	dc05      	bgt.n	80010fa <speaker_floor+0x96>
	while (feedbackSpeaker != floor)
 80010ee:	4b08      	ldr	r3, [pc, #32]	@ (8001110 <speaker_floor+0xac>)
 80010f0:	881b      	ldrh	r3, [r3, #0]
 80010f2:	89fa      	ldrh	r2, [r7, #14]
 80010f4:	429a      	cmp	r2, r3
 80010f6:	d1ed      	bne.n	80010d4 <speaker_floor+0x70>
 80010f8:	e000      	b.n	80010fc <speaker_floor+0x98>
		{
			break;
 80010fa:	bf00      	nop
		}
	}
	feedbackSpeaker = 0;
 80010fc:	4b04      	ldr	r3, [pc, #16]	@ (8001110 <speaker_floor+0xac>)
 80010fe:	2200      	movs	r2, #0
 8001100:	801a      	strh	r2, [r3, #0]
}
 8001102:	bf00      	nop
 8001104:	3710      	adds	r7, #16
 8001106:	46bd      	mov	sp, r7
 8001108:	bd80      	pop	{r7, pc}
 800110a:	bf00      	nop
 800110c:	200001c0 	.word	0x200001c0
 8001110:	200001ba 	.word	0x200001ba

08001114 <Error_Handler>:
/**
  * @brief  This function is executed in case of error occurrence.
  * @retval None
  */
void Error_Handler(void)
{
 8001114:	b480      	push	{r7}
 8001116:	af00      	add	r7, sp, #0
  \details Disables IRQ interrupts by setting the I-bit in the CPSR.
           Can only be executed in Privileged modes.
 */
__STATIC_FORCEINLINE void __disable_irq(void)
{
  __ASM volatile ("cpsid i" : : : "memory");
 8001118:	b672      	cpsid	i
}
 800111a:	bf00      	nop
  /* USER CODE BEGIN Error_Handler_Debug */
  /* User can add his own implementation to report the HAL error return state */
  __disable_irq();
  while (1)
 800111c:	bf00      	nop
 800111e:	e7fd      	b.n	800111c <Error_Handler+0x8>

08001120 <HAL_MspInit>:
 8001120:	b480      	push	{r7}
 8001122:	b085      	sub	sp, #20
 8001124:	af00      	add	r7, sp, #0
 8001126:	4b15      	ldr	r3, [pc, #84]	@ (800117c <HAL_MspInit+0x5c>)
 8001128:	699b      	ldr	r3, [r3, #24]
 800112a:	4a14      	ldr	r2, [pc, #80]	@ (800117c <HAL_MspInit+0x5c>)
 800112c:	f043 0301 	orr.w	r3, r3, #1
 8001130:	6193      	str	r3, [r2, #24]
 8001132:	4b12      	ldr	r3, [pc, #72]	@ (800117c <HAL_MspInit+0x5c>)
 8001134:	699b      	ldr	r3, [r3, #24]
 8001136:	f003 0301 	and.w	r3, r3, #1
 800113a:	60bb      	str	r3, [r7, #8]
 800113c:	68bb      	ldr	r3, [r7, #8]
 800113e:	4b0f      	ldr	r3, [pc, #60]	@ (800117c <HAL_MspInit+0x5c>)
 8001140:	69db      	ldr	r3, [r3, #28]
 8001142:	4a0e      	ldr	r2, [pc, #56]	@ (800117c <HAL_MspInit+0x5c>)
 8001144:	f043 5380 	orr.w	r3, r3, #268435456	@ 0x10000000
 8001148:	61d3      	str	r3, [r2, #28]
 800114a:	4b0c      	ldr	r3, [pc, #48]	@ (800117c <HAL_MspInit+0x5c>)
 800114c:	69db      	ldr	r3, [r3, #28]
 800114e:	f003 5380 	and.w	r3, r3, #268435456	@ 0x10000000
 8001152:	607b      	str	r3, [r7, #4]
 8001154:	687b      	ldr	r3, [r7, #4]
 8001156:	4b0a      	ldr	r3, [pc, #40]	@ (8001180 <HAL_MspInit+0x60>)
 8001158:	685b      	ldr	r3, [r3, #4]
 800115a:	60fb      	str	r3, [r7, #12]
 800115c:	68fb      	ldr	r3, [r7, #12]
 800115e:	f023 63e0 	bic.w	r3, r3, #117440512	@ 0x7000000
 8001162:	60fb      	str	r3, [r7, #12]
 8001164:	68fb      	ldr	r3, [r7, #12]
 8001166:	f043 7300 	orr.w	r3, r3, #33554432	@ 0x2000000
 800116a:	60fb      	str	r3, [r7, #12]
 800116c:	4a04      	ldr	r2, [pc, #16]	@ (8001180 <HAL_MspInit+0x60>)
 800116e:	68fb      	ldr	r3, [r7, #12]
 8001170:	6053      	str	r3, [r2, #4]
 8001172:	bf00      	nop
 8001174:	3714      	adds	r7, #20
 8001176:	46bd      	mov	sp, r7
 8001178:	bc80      	pop	{r7}
 800117a:	4770      	bx	lr
 800117c:	40021000 	.word	0x40021000
 8001180:	40010000 	.word	0x40010000

08001184 <HAL_CAN_MspInit>:
 8001184:	b580      	push	{r7, lr}
 8001186:	b088      	sub	sp, #32
 8001188:	af00      	add	r7, sp, #0
 800118a:	6078      	str	r0, [r7, #4]
 800118c:	f107 0310 	add.w	r3, r7, #16
 8001190:	2200      	movs	r2, #0
 8001192:	601a      	str	r2, [r3, #0]
 8001194:	605a      	str	r2, [r3, #4]
 8001196:	609a      	str	r2, [r3, #8]
 8001198:	60da      	str	r2, [r3, #12]
 800119a:	687b      	ldr	r3, [r7, #4]
 800119c:	681b      	ldr	r3, [r3, #0]
 800119e:	4a20      	ldr	r2, [pc, #128]	@ (8001220 <HAL_CAN_MspInit+0x9c>)
 80011a0:	4293      	cmp	r3, r2
 80011a2:	d139      	bne.n	8001218 <HAL_CAN_MspInit+0x94>
 80011a4:	4b1f      	ldr	r3, [pc, #124]	@ (8001224 <HAL_CAN_MspInit+0xa0>)
 80011a6:	69db      	ldr	r3, [r3, #28]
 80011a8:	4a1e      	ldr	r2, [pc, #120]	@ (8001224 <HAL_CAN_MspInit+0xa0>)
 80011aa:	f043 7300 	orr.w	r3, r3, #33554432	@ 0x2000000
 80011ae:	61d3      	str	r3, [r2, #28]
 80011b0:	4b1c      	ldr	r3, [pc, #112]	@ (8001224 <HAL_CAN_MspInit+0xa0>)
 80011b2:	69db      	ldr	r3, [r3, #28]
 80011b4:	f003 7300 	and.w	r3, r3, #33554432	@ 0x2000000
 80011b8:	60fb      	str	r3, [r7, #12]
 80011ba:	68fb      	ldr	r3, [r7, #12]
 80011bc:	4b19      	ldr	r3, [pc, #100]	@ (8001224 <HAL_CAN_MspInit+0xa0>)
 80011be:	699b      	ldr	r3, [r3, #24]
 80011c0:	4a18      	ldr	r2, [pc, #96]	@ (8001224 <HAL_CAN_MspInit+0xa0>)
 80011c2:	f043 0304 	orr.w	r3, r3, #4
 80011c6:	6193      	str	r3, [r2, #24]
 80011c8:	4b16      	ldr	r3, [pc, #88]	@ (8001224 <HAL_CAN_MspInit+0xa0>)
 80011ca:	699b      	ldr	r3, [r3, #24]
 80011cc:	f003 0304 	and.w	r3, r3, #4
 80011d0:	60bb      	str	r3, [r7, #8]
 80011d2:	68bb      	ldr	r3, [r7, #8]
 80011d4:	f44f 6300 	mov.w	r3, #2048	@ 0x800
 80011d8:	613b      	str	r3, [r7, #16]
 80011da:	2300      	movs	r3, #0
 80011dc:	617b      	str	r3, [r7, #20]
 80011de:	2300      	movs	r3, #0
 80011e0:	61bb      	str	r3, [r7, #24]
 80011e2:	f107 0310 	add.w	r3, r7, #16
 80011e6:	4619      	mov	r1, r3
 80011e8:	480f      	ldr	r0, [pc, #60]	@ (8001228 <HAL_CAN_MspInit+0xa4>)
 80011ea:	f001 fb03 	bl	80027f4 <HAL_GPIO_Init>
 80011ee:	f44f 5380 	mov.w	r3, #4096	@ 0x1000
 80011f2:	613b      	str	r3, [r7, #16]
 80011f4:	2302      	movs	r3, #2
 80011f6:	617b      	str	r3, [r7, #20]
 80011f8:	2303      	movs	r3, #3
 80011fa:	61fb      	str	r3, [r7, #28]
 80011fc:	f107 0310 	add.w	r3, r7, #16
 8001200:	4619      	mov	r1, r3
 8001202:	4809      	ldr	r0, [pc, #36]	@ (8001228 <HAL_CAN_MspInit+0xa4>)
 8001204:	f001 faf6 	bl	80027f4 <HAL_GPIO_Init>
 8001208:	2200      	movs	r2, #0
 800120a:	2101      	movs	r1, #1
 800120c:	2014      	movs	r0, #20
 800120e:	f001 f814 	bl	800223a <HAL_NVIC_SetPriority>
 8001212:	2014      	movs	r0, #20
 8001214:	f001 f82d 	bl	8002272 <HAL_NVIC_EnableIRQ>
 8001218:	bf00      	nop
 800121a:	3720      	adds	r7, #32
 800121c:	46bd      	mov	sp, r7
 800121e:	bd80      	pop	{r7, pc}
 8001220:	40006400 	.word	0x40006400
 8001224:	40021000 	.word	0x40021000
 8001228:	40010800 	.word	0x40010800

0800122c <HAL_TIM_Base_MspInit>:
 800122c:	b580      	push	{r7, lr}
 800122e:	b084      	sub	sp, #16
 8001230:	af00      	add	r7, sp, #0
 8001232:	6078      	str	r0, [r7, #4]
 8001234:	687b      	ldr	r3, [r7, #4]
 8001236:	681b      	ldr	r3, [r3, #0]
 8001238:	4a0d      	ldr	r2, [pc, #52]	@ (8001270 <HAL_TIM_Base_MspInit+0x44>)
 800123a:	4293      	cmp	r3, r2
 800123c:	d113      	bne.n	8001266 <HAL_TIM_Base_MspInit+0x3a>
 800123e:	4b0d      	ldr	r3, [pc, #52]	@ (8001274 <HAL_TIM_Base_MspInit+0x48>)
 8001240:	69db      	ldr	r3, [r3, #28]
 8001242:	4a0c      	ldr	r2, [pc, #48]	@ (8001274 <HAL_TIM_Base_MspInit+0x48>)
 8001244:	f043 0302 	orr.w	r3, r3, #2
 8001248:	61d3      	str	r3, [r2, #28]
 800124a:	4b0a      	ldr	r3, [pc, #40]	@ (8001274 <HAL_TIM_Base_MspInit+0x48>)
 800124c:	69db      	ldr	r3, [r3, #28]
 800124e:	f003 0302 	and.w	r3, r3, #2
 8001252:	60fb      	str	r3, [r7, #12]
 8001254:	68fb      	ldr	r3, [r7, #12]
 8001256:	2200      	movs	r2, #0
 8001258:	2103      	movs	r1, #3
 800125a:	201d      	movs	r0, #29
 800125c:	f000 ffed 	bl	800223a <HAL_NVIC_SetPriority>
 8001260:	201d      	movs	r0, #29
 8001262:	f001 f806 	bl	8002272 <HAL_NVIC_EnableIRQ>
 8001266:	bf00      	nop
 8001268:	3710      	adds	r7, #16
 800126a:	46bd      	mov	sp, r7
 800126c:	bd80      	pop	{r7, pc}
 800126e:	bf00      	nop
 8001270:	40000400 	.word	0x40000400
 8001274:	40021000 	.word	0x40021000

08001278 <HAL_UART_MspInit>:
 8001278:	b580      	push	{r7, lr}
 800127a:	b088      	sub	sp, #32
 800127c:	af00      	add	r7, sp, #0
 800127e:	6078      	str	r0, [r7, #4]
 8001280:	f107 0310 	add.w	r3, r7, #16
 8001284:	2200      	movs	r2, #0
 8001286:	601a      	str	r2, [r3, #0]
 8001288:	605a      	str	r2, [r3, #4]
 800128a:	609a      	str	r2, [r3, #8]
 800128c:	60da      	str	r2, [r3, #12]
 800128e:	687b      	ldr	r3, [r7, #4]
 8001290:	681b      	ldr	r3, [r3, #0]
 8001292:	4a32      	ldr	r2, [pc, #200]	@ (800135c <HAL_UART_MspInit+0xe4>)
 8001294:	4293      	cmp	r3, r2
 8001296:	d15d      	bne.n	8001354 <HAL_UART_MspInit+0xdc>
 8001298:	4b31      	ldr	r3, [pc, #196]	@ (8001360 <HAL_UART_MspInit+0xe8>)
 800129a:	69db      	ldr	r3, [r3, #28]
 800129c:	4a30      	ldr	r2, [pc, #192]	@ (8001360 <HAL_UART_MspInit+0xe8>)
 800129e:	f443 3300 	orr.w	r3, r3, #131072	@ 0x20000
 80012a2:	61d3      	str	r3, [r2, #28]
 80012a4:	4b2e      	ldr	r3, [pc, #184]	@ (8001360 <HAL_UART_MspInit+0xe8>)
 80012a6:	69db      	ldr	r3, [r3, #28]
 80012a8:	f403 3300 	and.w	r3, r3, #131072	@ 0x20000
 80012ac:	60fb      	str	r3, [r7, #12]
 80012ae:	68fb      	ldr	r3, [r7, #12]
 80012b0:	4b2b      	ldr	r3, [pc, #172]	@ (8001360 <HAL_UART_MspInit+0xe8>)
 80012b2:	699b      	ldr	r3, [r3, #24]
 80012b4:	4a2a      	ldr	r2, [pc, #168]	@ (8001360 <HAL_UART_MspInit+0xe8>)
 80012b6:	f043 0304 	orr.w	r3, r3, #4
 80012ba:	6193      	str	r3, [r2, #24]
 80012bc:	4b28      	ldr	r3, [pc, #160]	@ (8001360 <HAL_UART_MspInit+0xe8>)
 80012be:	699b      	ldr	r3, [r3, #24]
 80012c0:	f003 0304 	and.w	r3, r3, #4
 80012c4:	60bb      	str	r3, [r7, #8]
 80012c6:	68bb      	ldr	r3, [r7, #8]
 80012c8:	2304      	movs	r3, #4
 80012ca:	613b      	str	r3, [r7, #16]
 80012cc:	2302      	movs	r3, #2
 80012ce:	617b      	str	r3, [r7, #20]
 80012d0:	2303      	movs	r3, #3
 80012d2:	61fb      	str	r3, [r7, #28]
 80012d4:	f107 0310 	add.w	r3, r7, #16
 80012d8:	4619      	mov	r1, r3
 80012da:	4822      	ldr	r0, [pc, #136]	@ (8001364 <HAL_UART_MspInit+0xec>)
 80012dc:	f001 fa8a 	bl	80027f4 <HAL_GPIO_Init>
 80012e0:	2308      	movs	r3, #8
 80012e2:	613b      	str	r3, [r7, #16]
 80012e4:	2300      	movs	r3, #0
 80012e6:	617b      	str	r3, [r7, #20]
 80012e8:	2300      	movs	r3, #0
 80012ea:	61bb      	str	r3, [r7, #24]
 80012ec:	f107 0310 	add.w	r3, r7, #16
 80012f0:	4619      	mov	r1, r3
 80012f2:	481c      	ldr	r0, [pc, #112]	@ (8001364 <HAL_UART_MspInit+0xec>)
 80012f4:	f001 fa7e 	bl	80027f4 <HAL_GPIO_Init>
 80012f8:	4b1b      	ldr	r3, [pc, #108]	@ (8001368 <HAL_UART_MspInit+0xf0>)
 80012fa:	4a1c      	ldr	r2, [pc, #112]	@ (800136c <HAL_UART_MspInit+0xf4>)
 80012fc:	601a      	str	r2, [r3, #0]
 80012fe:	4b1a      	ldr	r3, [pc, #104]	@ (8001368 <HAL_UART_MspInit+0xf0>)
 8001300:	2200      	movs	r2, #0
 8001302:	605a      	str	r2, [r3, #4]
 8001304:	4b18      	ldr	r3, [pc, #96]	@ (8001368 <HAL_UART_MspInit+0xf0>)
 8001306:	2200      	movs	r2, #0
 8001308:	609a      	str	r2, [r3, #8]
 800130a:	4b17      	ldr	r3, [pc, #92]	@ (8001368 <HAL_UART_MspInit+0xf0>)
 800130c:	2280      	movs	r2, #128	@ 0x80
 800130e:	60da      	str	r2, [r3, #12]
 8001310:	4b15      	ldr	r3, [pc, #84]	@ (8001368 <HAL_UART_MspInit+0xf0>)
 8001312:	2200      	movs	r2, #0
 8001314:	611a      	str	r2, [r3, #16]
 8001316:	4b14      	ldr	r3, [pc, #80]	@ (8001368 <HAL_UART_MspInit+0xf0>)
 8001318:	2200      	movs	r2, #0
 800131a:	615a      	str	r2, [r3, #20]
 800131c:	4b12      	ldr	r3, [pc, #72]	@ (8001368 <HAL_UART_MspInit+0xf0>)
 800131e:	2200      	movs	r2, #0
 8001320:	619a      	str	r2, [r3, #24]
 8001322:	4b11      	ldr	r3, [pc, #68]	@ (8001368 <HAL_UART_MspInit+0xf0>)
 8001324:	2200      	movs	r2, #0
 8001326:	61da      	str	r2, [r3, #28]
 8001328:	480f      	ldr	r0, [pc, #60]	@ (8001368 <HAL_UART_MspInit+0xf0>)
 800132a:	f000 ffc1 	bl	80022b0 <HAL_DMA_Init>
 800132e:	4603      	mov	r3, r0
 8001330:	2b00      	cmp	r3, #0
 8001332:	d001      	beq.n	8001338 <HAL_UART_MspInit+0xc0>
 8001334:	f7ff feee 	bl	8001114 <Error_Handler>
 8001338:	687b      	ldr	r3, [r7, #4]
 800133a:	4a0b      	ldr	r2, [pc, #44]	@ (8001368 <HAL_UART_MspInit+0xf0>)
 800133c:	63da      	str	r2, [r3, #60]	@ 0x3c
 800133e:	4a0a      	ldr	r2, [pc, #40]	@ (8001368 <HAL_UART_MspInit+0xf0>)
 8001340:	687b      	ldr	r3, [r7, #4]
 8001342:	6253      	str	r3, [r2, #36]	@ 0x24
 8001344:	2200      	movs	r2, #0
 8001346:	2102      	movs	r1, #2
 8001348:	2026      	movs	r0, #38	@ 0x26
 800134a:	f000 ff76 	bl	800223a <HAL_NVIC_SetPriority>
 800134e:	2026      	movs	r0, #38	@ 0x26
 8001350:	f000 ff8f 	bl	8002272 <HAL_NVIC_EnableIRQ>
 8001354:	bf00      	nop
 8001356:	3720      	adds	r7, #32
 8001358:	46bd      	mov	sp, r7
 800135a:	bd80      	pop	{r7, pc}
 800135c:	40004400 	.word	0x40004400
 8001360:	40021000 	.word	0x40021000
 8001364:	40010800 	.word	0x40010800
 8001368:	200000ec 	.word	0x200000ec
 800136c:	4002006c 	.word	0x4002006c

08001370 <NMI_Handler>:
 8001370:	b480      	push	{r7}
 8001372:	af00      	add	r7, sp, #0
 8001374:	bf00      	nop
 8001376:	e7fd      	b.n	8001374 <NMI_Handler+0x4>

08001378 <HardFault_Handler>:
 8001378:	b480      	push	{r7}
 800137a:	af00      	add	r7, sp, #0
 800137c:	bf00      	nop
 800137e:	e7fd      	b.n	800137c <HardFault_Handler+0x4>

08001380 <MemManage_Handler>:
 8001380:	b480      	push	{r7}
 8001382:	af00      	add	r7, sp, #0
 8001384:	bf00      	nop
 8001386:	e7fd      	b.n	8001384 <MemManage_Handler+0x4>

08001388 <BusFault_Handler>:
 8001388:	b480      	push	{r7}
 800138a:	af00      	add	r7, sp, #0
 800138c:	bf00      	nop
 800138e:	e7fd      	b.n	800138c <BusFault_Handler+0x4>

08001390 <UsageFault_Handler>:
 8001390:	b480      	push	{r7}
 8001392:	af00      	add	r7, sp, #0
 8001394:	bf00      	nop
 8001396:	e7fd      	b.n	8001394 <UsageFault_Handler+0x4>

08001398 <SVC_Handler>:
 8001398:	b480      	push	{r7}
 800139a:	af00      	add	r7, sp, #0
 800139c:	bf00      	nop
 800139e:	46bd      	mov	sp, r7
 80013a0:	bc80      	pop	{r7}
 80013a2:	4770      	bx	lr

080013a4 <DebugMon_Handler>:
 80013a4:	b480      	push	{r7}
 80013a6:	af00      	add	r7, sp, #0
 80013a8:	bf00      	nop
 80013aa:	46bd      	mov	sp, r7
 80013ac:	bc80      	pop	{r7}
 80013ae:	4770      	bx	lr

080013b0 <PendSV_Handler>:
 80013b0:	b480      	push	{r7}
 80013b2:	af00      	add	r7, sp, #0
 80013b4:	bf00      	nop
 80013b6:	46bd      	mov	sp, r7
 80013b8:	bc80      	pop	{r7}
 80013ba:	4770      	bx	lr

080013bc <SysTick_Handler>:
 80013bc:	b580      	push	{r7, lr}
 80013be:	af00      	add	r7, sp, #0
 80013c0:	f000 f89c 	bl	80014fc <HAL_IncTick>
 80013c4:	bf00      	nop
 80013c6:	bd80      	pop	{r7, pc}

080013c8 <DMA1_Channel6_IRQHandler>:
 80013c8:	b580      	push	{r7, lr}
 80013ca:	af00      	add	r7, sp, #0
 80013cc:	4802      	ldr	r0, [pc, #8]	@ (80013d8 <DMA1_Channel6_IRQHandler+0x10>)
 80013ce:	f001 f8dd 	bl	800258c <HAL_DMA_IRQHandler>
 80013d2:	bf00      	nop
 80013d4:	bd80      	pop	{r7, pc}
 80013d6:	bf00      	nop
 80013d8:	200000ec 	.word	0x200000ec

080013dc <USB_LP_CAN1_RX0_IRQHandler>:
 80013dc:	b580      	push	{r7, lr}
 80013de:	af00      	add	r7, sp, #0
 80013e0:	4802      	ldr	r0, [pc, #8]	@ (80013ec <USB_LP_CAN1_RX0_IRQHandler+0x10>)
 80013e2:	f000 fc19 	bl	8001c18 <HAL_CAN_IRQHandler>
 80013e6:	bf00      	nop
 80013e8:	bd80      	pop	{r7, pc}
 80013ea:	bf00      	nop
 80013ec:	20000028 	.word	0x20000028

080013f0 <TIM3_IRQHandler>:
 80013f0:	b580      	push	{r7, lr}
 80013f2:	af00      	add	r7, sp, #0
 80013f4:	4802      	ldr	r0, [pc, #8]	@ (8001400 <TIM3_IRQHandler+0x10>)
 80013f6:	f002 f8a1 	bl	800353c <HAL_TIM_IRQHandler>
 80013fa:	bf00      	nop
 80013fc:	bd80      	pop	{r7, pc}
 80013fe:	bf00      	nop
 8001400:	2000005c 	.word	0x2000005c

08001404 <USART2_IRQHandler>:
 8001404:	b580      	push	{r7, lr}
 8001406:	af00      	add	r7, sp, #0
 8001408:	4802      	ldr	r0, [pc, #8]	@ (8001414 <USART2_IRQHandler+0x10>)
 800140a:	f002 fd1b 	bl	8003e44 <HAL_UART_IRQHandler>
 800140e:	bf00      	nop
 8001410:	bd80      	pop	{r7, pc}
 8001412:	bf00      	nop
 8001414:	200000a4 	.word	0x200000a4

08001418 <SystemInit>:
 8001418:	b480      	push	{r7}
 800141a:	af00      	add	r7, sp, #0
 800141c:	bf00      	nop
 800141e:	46bd      	mov	sp, r7
 8001420:	bc80      	pop	{r7}
 8001422:	4770      	bx	lr

08001424 <Reset_Handler>:
 8001424:	f7ff fff8 	bl	8001418 <SystemInit>
 8001428:	480b      	ldr	r0, [pc, #44]	@ (8001458 <LoopFillZerobss+0xe>)
 800142a:	490c      	ldr	r1, [pc, #48]	@ (800145c <LoopFillZerobss+0x12>)
 800142c:	4a0c      	ldr	r2, [pc, #48]	@ (8001460 <LoopFillZerobss+0x16>)
 800142e:	2300      	movs	r3, #0
 8001430:	e002      	b.n	8001438 <LoopCopyDataInit>

08001432 <CopyDataInit>:
 8001432:	58d4      	ldr	r4, [r2, r3]
 8001434:	50c4      	str	r4, [r0, r3]
 8001436:	3304      	adds	r3, #4

08001438 <LoopCopyDataInit>:
 8001438:	18c4      	adds	r4, r0, r3
 800143a:	428c      	cmp	r4, r1
 800143c:	d3f9      	bcc.n	8001432 <CopyDataInit>
 800143e:	4a09      	ldr	r2, [pc, #36]	@ (8001464 <LoopFillZerobss+0x1a>)
 8001440:	4c09      	ldr	r4, [pc, #36]	@ (8001468 <LoopFillZerobss+0x1e>)
 8001442:	2300      	movs	r3, #0
 8001444:	e001      	b.n	800144a <LoopFillZerobss>

08001446 <FillZerobss>:
 8001446:	6013      	str	r3, [r2, #0]
 8001448:	3204      	adds	r2, #4

0800144a <LoopFillZerobss>:
 800144a:	42a2      	cmp	r2, r4
 800144c:	d3fb      	bcc.n	8001446 <FillZerobss>
 800144e:	f003 fbf9 	bl	8004c44 <__libc_init_array>
 8001452:	f7ff f947 	bl	80006e4 <main>
 8001456:	4770      	bx	lr
 8001458:	20000000 	.word	0x20000000
 800145c:	2000000c 	.word	0x2000000c
 8001460:	08004cd8 	.word	0x08004cd8
 8001464:	2000000c 	.word	0x2000000c
 8001468:	200001c8 	.word	0x200001c8

0800146c <ADC1_2_IRQHandler>:
 800146c:	e7fe      	b.n	800146c <ADC1_2_IRQHandler>
	...

08001470 <HAL_Init>:
 8001470:	b580      	push	{r7, lr}
 8001472:	af00      	add	r7, sp, #0
 8001474:	4b08      	ldr	r3, [pc, #32]	@ (8001498 <HAL_Init+0x28>)
 8001476:	681b      	ldr	r3, [r3, #0]
 8001478:	4a07      	ldr	r2, [pc, #28]	@ (8001498 <HAL_Init+0x28>)
 800147a:	f043 0310 	orr.w	r3, r3, #16
 800147e:	6013      	str	r3, [r2, #0]
 8001480:	2003      	movs	r0, #3
 8001482:	f000 fecf 	bl	8002224 <HAL_NVIC_SetPriorityGrouping>
 8001486:	200f      	movs	r0, #15
 8001488:	f000 f808 	bl	800149c <HAL_InitTick>
 800148c:	f7ff fe48 	bl	8001120 <HAL_MspInit>
 8001490:	2300      	movs	r3, #0
 8001492:	4618      	mov	r0, r3
 8001494:	bd80      	pop	{r7, pc}
 8001496:	bf00      	nop
 8001498:	40022000 	.word	0x40022000

0800149c <HAL_InitTick>:
 800149c:	b580      	push	{r7, lr}
 800149e:	b082      	sub	sp, #8
 80014a0:	af00      	add	r7, sp, #0
 80014a2:	6078      	str	r0, [r7, #4]
 80014a4:	4b12      	ldr	r3, [pc, #72]	@ (80014f0 <HAL_InitTick+0x54>)
 80014a6:	681a      	ldr	r2, [r3, #0]
 80014a8:	4b12      	ldr	r3, [pc, #72]	@ (80014f4 <HAL_InitTick+0x58>)
 80014aa:	781b      	ldrb	r3, [r3, #0]
 80014ac:	4619      	mov	r1, r3
 80014ae:	f44f 737a 	mov.w	r3, #1000	@ 0x3e8
 80014b2:	fbb3 f3f1 	udiv	r3, r3, r1
 80014b6:	fbb2 f3f3 	udiv	r3, r2, r3
 80014ba:	4618      	mov	r0, r3
 80014bc:	f000 feeb 	bl	8002296 <HAL_SYSTICK_Config>
 80014c0:	4603      	mov	r3, r0
 80014c2:	2b00      	cmp	r3, #0
 80014c4:	d001      	beq.n	80014ca <HAL_InitTick+0x2e>
 80014c6:	2301      	movs	r3, #1
 80014c8:	e00e      	b.n	80014e8 <HAL_InitTick+0x4c>
 80014ca:	687b      	ldr	r3, [r7, #4]
 80014cc:	2b0f      	cmp	r3, #15
 80014ce:	d80a      	bhi.n	80014e6 <HAL_InitTick+0x4a>
 80014d0:	2200      	movs	r2, #0
 80014d2:	6879      	ldr	r1, [r7, #4]
 80014d4:	f04f 30ff 	mov.w	r0, #4294967295
 80014d8:	f000 feaf 	bl	800223a <HAL_NVIC_SetPriority>
 80014dc:	4a06      	ldr	r2, [pc, #24]	@ (80014f8 <HAL_InitTick+0x5c>)
 80014de:	687b      	ldr	r3, [r7, #4]
 80014e0:	6013      	str	r3, [r2, #0]
 80014e2:	2300      	movs	r3, #0
 80014e4:	e000      	b.n	80014e8 <HAL_InitTick+0x4c>
 80014e6:	2301      	movs	r3, #1
 80014e8:	4618      	mov	r0, r3
 80014ea:	3708      	adds	r7, #8
 80014ec:	46bd      	mov	sp, r7
 80014ee:	bd80      	pop	{r7, pc}
 80014f0:	20000000 	.word	0x20000000
 80014f4:	20000008 	.word	0x20000008
 80014f8:	20000004 	.word	0x20000004

080014fc <HAL_IncTick>:
 80014fc:	b480      	push	{r7}
 80014fe:	af00      	add	r7, sp, #0
 8001500:	4b05      	ldr	r3, [pc, #20]	@ (8001518 <HAL_IncTick+0x1c>)
 8001502:	781b      	ldrb	r3, [r3, #0]
 8001504:	461a      	mov	r2, r3
 8001506:	4b05      	ldr	r3, [pc, #20]	@ (800151c <HAL_IncTick+0x20>)
 8001508:	681b      	ldr	r3, [r3, #0]
 800150a:	4413      	add	r3, r2
 800150c:	4a03      	ldr	r2, [pc, #12]	@ (800151c <HAL_IncTick+0x20>)
 800150e:	6013      	str	r3, [r2, #0]
 8001510:	bf00      	nop
 8001512:	46bd      	mov	sp, r7
 8001514:	bc80      	pop	{r7}
 8001516:	4770      	bx	lr
 8001518:	20000008 	.word	0x20000008
 800151c:	200001c4 	.word	0x200001c4

08001520 <HAL_GetTick>:
 8001520:	b480      	push	{r7}
 8001522:	af00      	add	r7, sp, #0
 8001524:	4b02      	ldr	r3, [pc, #8]	@ (8001530 <HAL_GetTick+0x10>)
 8001526:	681b      	ldr	r3, [r3, #0]
 8001528:	4618      	mov	r0, r3
 800152a:	46bd      	mov	sp, r7
 800152c:	bc80      	pop	{r7}
 800152e:	4770      	bx	lr
 8001530:	200001c4 	.word	0x200001c4

08001534 <HAL_Delay>:
 8001534:	b580      	push	{r7, lr}
 8001536:	b084      	sub	sp, #16
 8001538:	af00      	add	r7, sp, #0
 800153a:	6078      	str	r0, [r7, #4]
 800153c:	f7ff fff0 	bl	8001520 <HAL_GetTick>
 8001540:	60b8      	str	r0, [r7, #8]
 8001542:	687b      	ldr	r3, [r7, #4]
 8001544:	60fb      	str	r3, [r7, #12]
 8001546:	68fb      	ldr	r3, [r7, #12]
 8001548:	f1b3 3fff 	cmp.w	r3, #4294967295
 800154c:	d005      	beq.n	800155a <HAL_Delay+0x26>
 800154e:	4b0a      	ldr	r3, [pc, #40]	@ (8001578 <HAL_Delay+0x44>)
 8001550:	781b      	ldrb	r3, [r3, #0]
 8001552:	461a      	mov	r2, r3
 8001554:	68fb      	ldr	r3, [r7, #12]
 8001556:	4413      	add	r3, r2
 8001558:	60fb      	str	r3, [r7, #12]
 800155a:	bf00      	nop
 800155c:	f7ff ffe0 	bl	8001520 <HAL_GetTick>
 8001560:	4602      	mov	r2, r0
 8001562:	68bb      	ldr	r3, [r7, #8]
 8001564:	1ad3      	subs	r3, r2, r3
 8001566:	68fa      	ldr	r2, [r7, #12]
 8001568:	429a      	cmp	r2, r3
 800156a:	d8f7      	bhi.n	800155c <HAL_Delay+0x28>
 800156c:	bf00      	nop
 800156e:	bf00      	nop
 8001570:	3710      	adds	r7, #16
 8001572:	46bd      	mov	sp, r7
 8001574:	bd80      	pop	{r7, pc}
 8001576:	bf00      	nop
 8001578:	20000008 	.word	0x20000008

0800157c <HAL_CAN_Init>:
 800157c:	b580      	push	{r7, lr}
 800157e:	b084      	sub	sp, #16
 8001580:	af00      	add	r7, sp, #0
 8001582:	6078      	str	r0, [r7, #4]
 8001584:	687b      	ldr	r3, [r7, #4]
 8001586:	2b00      	cmp	r3, #0
 8001588:	d101      	bne.n	800158e <HAL_CAN_Init+0x12>
 800158a:	2301      	movs	r3, #1
 800158c:	e0ed      	b.n	800176a <HAL_CAN_Init+0x1ee>
 800158e:	687b      	ldr	r3, [r7, #4]
 8001590:	f893 3020 	ldrb.w	r3, [r3, #32]
 8001594:	b2db      	uxtb	r3, r3
 8001596:	2b00      	cmp	r3, #0
 8001598:	d102      	bne.n	80015a0 <HAL_CAN_Init+0x24>
 800159a:	6878      	ldr	r0, [r7, #4]
 800159c:	f7ff fdf2 	bl	8001184 <HAL_CAN_MspInit>
 80015a0:	687b      	ldr	r3, [r7, #4]
 80015a2:	681b      	ldr	r3, [r3, #0]
 80015a4:	681a      	ldr	r2, [r3, #0]
 80015a6:	687b      	ldr	r3, [r7, #4]
 80015a8:	681b      	ldr	r3, [r3, #0]
 80015aa:	f042 0201 	orr.w	r2, r2, #1
 80015ae:	601a      	str	r2, [r3, #0]
 80015b0:	f7ff ffb6 	bl	8001520 <HAL_GetTick>
 80015b4:	60f8      	str	r0, [r7, #12]
 80015b6:	e012      	b.n	80015de <HAL_CAN_Init+0x62>
 80015b8:	f7ff ffb2 	bl	8001520 <HAL_GetTick>
 80015bc:	4602      	mov	r2, r0
 80015be:	68fb      	ldr	r3, [r7, #12]
 80015c0:	1ad3      	subs	r3, r2, r3
 80015c2:	2b0a      	cmp	r3, #10
 80015c4:	d90b      	bls.n	80015de <HAL_CAN_Init+0x62>
 80015c6:	687b      	ldr	r3, [r7, #4]
 80015c8:	6a5b      	ldr	r3, [r3, #36]	@ 0x24
 80015ca:	f443 3200 	orr.w	r2, r3, #131072	@ 0x20000
 80015ce:	687b      	ldr	r3, [r7, #4]
 80015d0:	625a      	str	r2, [r3, #36]	@ 0x24
 80015d2:	687b      	ldr	r3, [r7, #4]
 80015d4:	2205      	movs	r2, #5
 80015d6:	f883 2020 	strb.w	r2, [r3, #32]
 80015da:	2301      	movs	r3, #1
 80015dc:	e0c5      	b.n	800176a <HAL_CAN_Init+0x1ee>
 80015de:	687b      	ldr	r3, [r7, #4]
 80015e0:	681b      	ldr	r3, [r3, #0]
 80015e2:	685b      	ldr	r3, [r3, #4]
 80015e4:	f003 0301 	and.w	r3, r3, #1
 80015e8:	2b00      	cmp	r3, #0
 80015ea:	d0e5      	beq.n	80015b8 <HAL_CAN_Init+0x3c>
 80015ec:	687b      	ldr	r3, [r7, #4]
 80015ee:	681b      	ldr	r3, [r3, #0]
 80015f0:	681a      	ldr	r2, [r3, #0]
 80015f2:	687b      	ldr	r3, [r7, #4]
 80015f4:	681b      	ldr	r3, [r3, #0]
 80015f6:	f022 0202 	bic.w	r2, r2, #2
 80015fa:	601a      	str	r2, [r3, #0]
 80015fc:	f7ff ff90 	bl	8001520 <HAL_GetTick>
 8001600:	60f8      	str	r0, [r7, #12]
 8001602:	e012      	b.n	800162a <HAL_CAN_Init+0xae>
 8001604:	f7ff ff8c 	bl	8001520 <HAL_GetTick>
 8001608:	4602      	mov	r2, r0
 800160a:	68fb      	ldr	r3, [r7, #12]
 800160c:	1ad3      	subs	r3, r2, r3
 800160e:	2b0a      	cmp	r3, #10
 8001610:	d90b      	bls.n	800162a <HAL_CAN_Init+0xae>
 8001612:	687b      	ldr	r3, [r7, #4]
 8001614:	6a5b      	ldr	r3, [r3, #36]	@ 0x24
 8001616:	f443 3200 	orr.w	r2, r3, #131072	@ 0x20000
 800161a:	687b      	ldr	r3, [r7, #4]
 800161c:	625a      	str	r2, [r3, #36]	@ 0x24
 800161e:	687b      	ldr	r3, [r7, #4]
 8001620:	2205      	movs	r2, #5
 8001622:	f883 2020 	strb.w	r2, [r3, #32]
 8001626:	2301      	movs	r3, #1
 8001628:	e09f      	b.n	800176a <HAL_CAN_Init+0x1ee>
 800162a:	687b      	ldr	r3, [r7, #4]
 800162c:	681b      	ldr	r3, [r3, #0]
 800162e:	685b      	ldr	r3, [r3, #4]
 8001630:	f003 0302 	and.w	r3, r3, #2
 8001634:	2b00      	cmp	r3, #0
 8001636:	d1e5      	bne.n	8001604 <HAL_CAN_Init+0x88>
 8001638:	687b      	ldr	r3, [r7, #4]
 800163a:	7e1b      	ldrb	r3, [r3, #24]
 800163c:	2b01      	cmp	r3, #1
 800163e:	d108      	bne.n	8001652 <HAL_CAN_Init+0xd6>
 8001640:	687b      	ldr	r3, [r7, #4]
 8001642:	681b      	ldr	r3, [r3, #0]
 8001644:	681a      	ldr	r2, [r3, #0]
 8001646:	687b      	ldr	r3, [r7, #4]
 8001648:	681b      	ldr	r3, [r3, #0]
 800164a:	f042 0280 	orr.w	r2, r2, #128	@ 0x80
 800164e:	601a      	str	r2, [r3, #0]
 8001650:	e007      	b.n	8001662 <HAL_CAN_Init+0xe6>
 8001652:	687b      	ldr	r3, [r7, #4]
 8001654:	681b      	ldr	r3, [r3, #0]
 8001656:	681a      	ldr	r2, [r3, #0]
 8001658:	687b      	ldr	r3, [r7, #4]
 800165a:	681b      	ldr	r3, [r3, #0]
 800165c:	f022 0280 	bic.w	r2, r2, #128	@ 0x80
 8001660:	601a      	str	r2, [r3, #0]
 8001662:	687b      	ldr	r3, [r7, #4]
 8001664:	7e5b      	ldrb	r3, [r3, #25]
 8001666:	2b01      	cmp	r3, #1
 8001668:	d108      	bne.n	800167c <HAL_CAN_Init+0x100>
 800166a:	687b      	ldr	r3, [r7, #4]
 800166c:	681b      	ldr	r3, [r3, #0]
 800166e:	681a      	ldr	r2, [r3, #0]
 8001670:	687b      	ldr	r3, [r7, #4]
 8001672:	681b      	ldr	r3, [r3, #0]
 8001674:	f042 0240 	orr.w	r2, r2, #64	@ 0x40
 8001678:	601a      	str	r2, [r3, #0]
 800167a:	e007      	b.n	800168c <HAL_CAN_Init+0x110>
 800167c:	687b      	ldr	r3, [r7, #4]
 800167e:	681b      	ldr	r3, [r3, #0]
 8001680:	681a      	ldr	r2, [r3, #0]
 8001682:	687b      	ldr	r3, [r7, #4]
 8001684:	681b      	ldr	r3, [r3, #0]
 8001686:	f022 0240 	bic.w	r2, r2, #64	@ 0x40
 800168a:	601a      	str	r2, [r3, #0]
 800168c:	687b      	ldr	r3, [r7, #4]
 800168e:	7e9b      	ldrb	r3, [r3, #26]
 8001690:	2b01      	cmp	r3, #1
 8001692:	d108      	bne.n	80016a6 <HAL_CAN_Init+0x12a>
 8001694:	687b      	ldr	r3, [r7, #4]
 8001696:	681b      	ldr	r3, [r3, #0]
 8001698:	681a      	ldr	r2, [r3, #0]
 800169a:	687b      	ldr	r3, [r7, #4]
 800169c:	681b      	ldr	r3, [r3, #0]
 800169e:	f042 0220 	orr.w	r2, r2, #32
 80016a2:	601a      	str	r2, [r3, #0]
 80016a4:	e007      	b.n	80016b6 <HAL_CAN_Init+0x13a>
 80016a6:	687b      	ldr	r3, [r7, #4]
 80016a8:	681b      	ldr	r3, [r3, #0]
 80016aa:	681a      	ldr	r2, [r3, #0]
 80016ac:	687b      	ldr	r3, [r7, #4]
 80016ae:	681b      	ldr	r3, [r3, #0]
 80016b0:	f022 0220 	bic.w	r2, r2, #32
 80016b4:	601a      	str	r2, [r3, #0]
 80016b6:	687b      	ldr	r3, [r7, #4]
 80016b8:	7edb      	ldrb	r3, [r3, #27]
 80016ba:	2b01      	cmp	r3, #1
 80016bc:	d108      	bne.n	80016d0 <HAL_CAN_Init+0x154>
 80016be:	687b      	ldr	r3, [r7, #4]
 80016c0:	681b      	ldr	r3, [r3, #0]
 80016c2:	681a      	ldr	r2, [r3, #0]
 80016c4:	687b      	ldr	r3, [r7, #4]
 80016c6:	681b      	ldr	r3, [r3, #0]
 80016c8:	f022 0210 	bic.w	r2, r2, #16
 80016cc:	601a      	str	r2, [r3, #0]
 80016ce:	e007      	b.n	80016e0 <HAL_CAN_Init+0x164>
 80016d0:	687b      	ldr	r3, [r7, #4]
 80016d2:	681b      	ldr	r3, [r3, #0]
 80016d4:	681a      	ldr	r2, [r3, #0]
 80016d6:	687b      	ldr	r3, [r7, #4]
 80016d8:	681b      	ldr	r3, [r3, #0]
 80016da:	f042 0210 	orr.w	r2, r2, #16
 80016de:	601a      	str	r2, [r3, #0]
 80016e0:	687b      	ldr	r3, [r7, #4]
 80016e2:	7f1b      	ldrb	r3, [r3, #28]
 80016e4:	2b01      	cmp	r3, #1
 80016e6:	d108      	bne.n	80016fa <HAL_CAN_Init+0x17e>
 80016e8:	687b      	ldr	r3, [r7, #4]
 80016ea:	681b      	ldr	r3, [r3, #0]
 80016ec:	681a      	ldr	r2, [r3, #0]
 80016ee:	687b      	ldr	r3, [r7, #4]
 80016f0:	681b      	ldr	r3, [r3, #0]
 80016f2:	f042 0208 	orr.w	r2, r2, #8
 80016f6:	601a      	str	r2, [r3, #0]
 80016f8:	e007      	b.n	800170a <HAL_CAN_Init+0x18e>
 80016fa:	687b      	ldr	r3, [r7, #4]
 80016fc:	681b      	ldr	r3, [r3, #0]
 80016fe:	681a      	ldr	r2, [r3, #0]
 8001700:	687b      	ldr	r3, [r7, #4]
 8001702:	681b      	ldr	r3, [r3, #0]
 8001704:	f022 0208 	bic.w	r2, r2, #8
 8001708:	601a      	str	r2, [r3, #0]
 800170a:	687b      	ldr	r3, [r7, #4]
 800170c:	7f5b      	ldrb	r3, [r3, #29]
 800170e:	2b01      	cmp	r3, #1
 8001710:	d108      	bne.n	8001724 <HAL_CAN_Init+0x1a8>
 8001712:	687b      	ldr	r3, [r7, #4]
 8001714:	681b      	ldr	r3, [r3, #0]
 8001716:	681a      	ldr	r2, [r3, #0]
 8001718:	687b      	ldr	r3, [r7, #4]
 800171a:	681b      	ldr	r3, [r3, #0]
 800171c:	f042 0204 	orr.w	r2, r2, #4
 8001720:	601a      	str	r2, [r3, #0]
 8001722:	e007      	b.n	8001734 <HAL_CAN_Init+0x1b8>
 8001724:	687b      	ldr	r3, [r7, #4]
 8001726:	681b      	ldr	r3, [r3, #0]
 8001728:	681a      	ldr	r2, [r3, #0]
 800172a:	687b      	ldr	r3, [r7, #4]
 800172c:	681b      	ldr	r3, [r3, #0]
 800172e:	f022 0204 	bic.w	r2, r2, #4
 8001732:	601a      	str	r2, [r3, #0]
 8001734:	687b      	ldr	r3, [r7, #4]
 8001736:	689a      	ldr	r2, [r3, #8]
 8001738:	687b      	ldr	r3, [r7, #4]
 800173a:	68db      	ldr	r3, [r3, #12]
 800173c:	431a      	orrs	r2, r3
 800173e:	687b      	ldr	r3, [r7, #4]
 8001740:	691b      	ldr	r3, [r3, #16]
 8001742:	431a      	orrs	r2, r3
 8001744:	687b      	ldr	r3, [r7, #4]
 8001746:	695b      	ldr	r3, [r3, #20]
 8001748:	ea42 0103 	orr.w	r1, r2, r3
 800174c:	687b      	ldr	r3, [r7, #4]
 800174e:	685b      	ldr	r3, [r3, #4]
 8001750:	1e5a      	subs	r2, r3, #1
 8001752:	687b      	ldr	r3, [r7, #4]
 8001754:	681b      	ldr	r3, [r3, #0]
 8001756:	430a      	orrs	r2, r1
 8001758:	61da      	str	r2, [r3, #28]
 800175a:	687b      	ldr	r3, [r7, #4]
 800175c:	2200      	movs	r2, #0
 800175e:	625a      	str	r2, [r3, #36]	@ 0x24
 8001760:	687b      	ldr	r3, [r7, #4]
 8001762:	2201      	movs	r2, #1
 8001764:	f883 2020 	strb.w	r2, [r3, #32]
 8001768:	2300      	movs	r3, #0
 800176a:	4618      	mov	r0, r3
 800176c:	3710      	adds	r7, #16
 800176e:	46bd      	mov	sp, r7
 8001770:	bd80      	pop	{r7, pc}

08001772 <HAL_CAN_ConfigFilter>:
 8001772:	b480      	push	{r7}
 8001774:	b087      	sub	sp, #28
 8001776:	af00      	add	r7, sp, #0
 8001778:	6078      	str	r0, [r7, #4]
 800177a:	6039      	str	r1, [r7, #0]
 800177c:	687b      	ldr	r3, [r7, #4]
 800177e:	681b      	ldr	r3, [r3, #0]
 8001780:	617b      	str	r3, [r7, #20]
 8001782:	687b      	ldr	r3, [r7, #4]
 8001784:	f893 3020 	ldrb.w	r3, [r3, #32]
 8001788:	74fb      	strb	r3, [r7, #19]
 800178a:	7cfb      	ldrb	r3, [r7, #19]
 800178c:	2b01      	cmp	r3, #1
 800178e:	d003      	beq.n	8001798 <HAL_CAN_ConfigFilter+0x26>
 8001790:	7cfb      	ldrb	r3, [r7, #19]
 8001792:	2b02      	cmp	r3, #2
 8001794:	f040 80aa 	bne.w	80018ec <HAL_CAN_ConfigFilter+0x17a>
 8001798:	697b      	ldr	r3, [r7, #20]
 800179a:	f8d3 3200 	ldr.w	r3, [r3, #512]	@ 0x200
 800179e:	f043 0201 	orr.w	r2, r3, #1
 80017a2:	697b      	ldr	r3, [r7, #20]
 80017a4:	f8c3 2200 	str.w	r2, [r3, #512]	@ 0x200
 80017a8:	683b      	ldr	r3, [r7, #0]
 80017aa:	695b      	ldr	r3, [r3, #20]
 80017ac:	f003 031f 	and.w	r3, r3, #31
 80017b0:	2201      	movs	r2, #1
 80017b2:	fa02 f303 	lsl.w	r3, r2, r3
 80017b6:	60fb      	str	r3, [r7, #12]
 80017b8:	697b      	ldr	r3, [r7, #20]
 80017ba:	f8d3 221c 	ldr.w	r2, [r3, #540]	@ 0x21c
 80017be:	68fb      	ldr	r3, [r7, #12]
 80017c0:	43db      	mvns	r3, r3
 80017c2:	401a      	ands	r2, r3
 80017c4:	697b      	ldr	r3, [r7, #20]
 80017c6:	f8c3 221c 	str.w	r2, [r3, #540]	@ 0x21c
 80017ca:	683b      	ldr	r3, [r7, #0]
 80017cc:	69db      	ldr	r3, [r3, #28]
 80017ce:	2b00      	cmp	r3, #0
 80017d0:	d123      	bne.n	800181a <HAL_CAN_ConfigFilter+0xa8>
 80017d2:	697b      	ldr	r3, [r7, #20]
 80017d4:	f8d3 220c 	ldr.w	r2, [r3, #524]	@ 0x20c
 80017d8:	68fb      	ldr	r3, [r7, #12]
 80017da:	43db      	mvns	r3, r3
 80017dc:	401a      	ands	r2, r3
 80017de:	697b      	ldr	r3, [r7, #20]
 80017e0:	f8c3 220c 	str.w	r2, [r3, #524]	@ 0x20c
 80017e4:	683b      	ldr	r3, [r7, #0]
 80017e6:	68db      	ldr	r3, [r3, #12]
 80017e8:	0419      	lsls	r1, r3, #16
 80017ea:	683b      	ldr	r3, [r7, #0]
 80017ec:	685b      	ldr	r3, [r3, #4]
 80017ee:	b29b      	uxth	r3, r3
 80017f0:	683a      	ldr	r2, [r7, #0]
 80017f2:	6952      	ldr	r2, [r2, #20]
 80017f4:	4319      	orrs	r1, r3
 80017f6:	697b      	ldr	r3, [r7, #20]
 80017f8:	3248      	adds	r2, #72	@ 0x48
 80017fa:	f843 1032 	str.w	r1, [r3, r2, lsl #3]
 80017fe:	683b      	ldr	r3, [r7, #0]
 8001800:	689b      	ldr	r3, [r3, #8]
 8001802:	0419      	lsls	r1, r3, #16
 8001804:	683b      	ldr	r3, [r7, #0]
 8001806:	681b      	ldr	r3, [r3, #0]
 8001808:	b29a      	uxth	r2, r3
 800180a:	683b      	ldr	r3, [r7, #0]
 800180c:	695b      	ldr	r3, [r3, #20]
 800180e:	430a      	orrs	r2, r1
 8001810:	6979      	ldr	r1, [r7, #20]
 8001812:	3348      	adds	r3, #72	@ 0x48
 8001814:	00db      	lsls	r3, r3, #3
 8001816:	440b      	add	r3, r1
 8001818:	605a      	str	r2, [r3, #4]
 800181a:	683b      	ldr	r3, [r7, #0]
 800181c:	69db      	ldr	r3, [r3, #28]
 800181e:	2b01      	cmp	r3, #1
 8001820:	d122      	bne.n	8001868 <HAL_CAN_ConfigFilter+0xf6>
 8001822:	697b      	ldr	r3, [r7, #20]
 8001824:	f8d3 220c 	ldr.w	r2, [r3, #524]	@ 0x20c
 8001828:	68fb      	ldr	r3, [r7, #12]
 800182a:	431a      	orrs	r2, r3
 800182c:	697b      	ldr	r3, [r7, #20]
 800182e:	f8c3 220c 	str.w	r2, [r3, #524]	@ 0x20c
 8001832:	683b      	ldr	r3, [r7, #0]
 8001834:	681b      	ldr	r3, [r3, #0]
 8001836:	0419      	lsls	r1, r3, #16
 8001838:	683b      	ldr	r3, [r7, #0]
 800183a:	685b      	ldr	r3, [r3, #4]
 800183c:	b29b      	uxth	r3, r3
 800183e:	683a      	ldr	r2, [r7, #0]
 8001840:	6952      	ldr	r2, [r2, #20]
 8001842:	4319      	orrs	r1, r3
 8001844:	697b      	ldr	r3, [r7, #20]
 8001846:	3248      	adds	r2, #72	@ 0x48
 8001848:	f843 1032 	str.w	r1, [r3, r2, lsl #3]
 800184c:	683b      	ldr	r3, [r7, #0]
 800184e:	689b      	ldr	r3, [r3, #8]
 8001850:	0419      	lsls	r1, r3, #16
 8001852:	683b      	ldr	r3, [r7, #0]
 8001854:	68db      	ldr	r3, [r3, #12]
 8001856:	b29a      	uxth	r2, r3
 8001858:	683b      	ldr	r3, [r7, #0]
 800185a:	695b      	ldr	r3, [r3, #20]
 800185c:	430a      	orrs	r2, r1
 800185e:	6979      	ldr	r1, [r7, #20]
 8001860:	3348      	adds	r3, #72	@ 0x48
 8001862:	00db      	lsls	r3, r3, #3
 8001864:	440b      	add	r3, r1
 8001866:	605a      	str	r2, [r3, #4]
 8001868:	683b      	ldr	r3, [r7, #0]
 800186a:	699b      	ldr	r3, [r3, #24]
 800186c:	2b00      	cmp	r3, #0
 800186e:	d109      	bne.n	8001884 <HAL_CAN_ConfigFilter+0x112>
 8001870:	697b      	ldr	r3, [r7, #20]
 8001872:	f8d3 2204 	ldr.w	r2, [r3, #516]	@ 0x204
 8001876:	68fb      	ldr	r3, [r7, #12]
 8001878:	43db      	mvns	r3, r3
 800187a:	401a      	ands	r2, r3
 800187c:	697b      	ldr	r3, [r7, #20]
 800187e:	f8c3 2204 	str.w	r2, [r3, #516]	@ 0x204
 8001882:	e007      	b.n	8001894 <HAL_CAN_ConfigFilter+0x122>
 8001884:	697b      	ldr	r3, [r7, #20]
 8001886:	f8d3 2204 	ldr.w	r2, [r3, #516]	@ 0x204
 800188a:	68fb      	ldr	r3, [r7, #12]
 800188c:	431a      	orrs	r2, r3
 800188e:	697b      	ldr	r3, [r7, #20]
 8001890:	f8c3 2204 	str.w	r2, [r3, #516]	@ 0x204
 8001894:	683b      	ldr	r3, [r7, #0]
 8001896:	691b      	ldr	r3, [r3, #16]
 8001898:	2b00      	cmp	r3, #0
 800189a:	d109      	bne.n	80018b0 <HAL_CAN_ConfigFilter+0x13e>
 800189c:	697b      	ldr	r3, [r7, #20]
 800189e:	f8d3 2214 	ldr.w	r2, [r3, #532]	@ 0x214
 80018a2:	68fb      	ldr	r3, [r7, #12]
 80018a4:	43db      	mvns	r3, r3
 80018a6:	401a      	ands	r2, r3
 80018a8:	697b      	ldr	r3, [r7, #20]
 80018aa:	f8c3 2214 	str.w	r2, [r3, #532]	@ 0x214
 80018ae:	e007      	b.n	80018c0 <HAL_CAN_ConfigFilter+0x14e>
 80018b0:	697b      	ldr	r3, [r7, #20]
 80018b2:	f8d3 2214 	ldr.w	r2, [r3, #532]	@ 0x214
 80018b6:	68fb      	ldr	r3, [r7, #12]
 80018b8:	431a      	orrs	r2, r3
 80018ba:	697b      	ldr	r3, [r7, #20]
 80018bc:	f8c3 2214 	str.w	r2, [r3, #532]	@ 0x214
 80018c0:	683b      	ldr	r3, [r7, #0]
 80018c2:	6a1b      	ldr	r3, [r3, #32]
 80018c4:	2b01      	cmp	r3, #1
 80018c6:	d107      	bne.n	80018d8 <HAL_CAN_ConfigFilter+0x166>
 80018c8:	697b      	ldr	r3, [r7, #20]
 80018ca:	f8d3 221c 	ldr.w	r2, [r3, #540]	@ 0x21c
 80018ce:	68fb      	ldr	r3, [r7, #12]
 80018d0:	431a      	orrs	r2, r3
 80018d2:	697b      	ldr	r3, [r7, #20]
 80018d4:	f8c3 221c 	str.w	r2, [r3, #540]	@ 0x21c
 80018d8:	697b      	ldr	r3, [r7, #20]
 80018da:	f8d3 3200 	ldr.w	r3, [r3, #512]	@ 0x200
 80018de:	f023 0201 	bic.w	r2, r3, #1
 80018e2:	697b      	ldr	r3, [r7, #20]
 80018e4:	f8c3 2200 	str.w	r2, [r3, #512]	@ 0x200
 80018e8:	2300      	movs	r3, #0
 80018ea:	e006      	b.n	80018fa <HAL_CAN_ConfigFilter+0x188>
 80018ec:	687b      	ldr	r3, [r7, #4]
 80018ee:	6a5b      	ldr	r3, [r3, #36]	@ 0x24
 80018f0:	f443 2280 	orr.w	r2, r3, #262144	@ 0x40000
 80018f4:	687b      	ldr	r3, [r7, #4]
 80018f6:	625a      	str	r2, [r3, #36]	@ 0x24
 80018f8:	2301      	movs	r3, #1
 80018fa:	4618      	mov	r0, r3
 80018fc:	371c      	adds	r7, #28
 80018fe:	46bd      	mov	sp, r7
 8001900:	bc80      	pop	{r7}
 8001902:	4770      	bx	lr

08001904 <HAL_CAN_Start>:
 8001904:	b580      	push	{r7, lr}
 8001906:	b084      	sub	sp, #16
 8001908:	af00      	add	r7, sp, #0
 800190a:	6078      	str	r0, [r7, #4]
 800190c:	687b      	ldr	r3, [r7, #4]
 800190e:	f893 3020 	ldrb.w	r3, [r3, #32]
 8001912:	b2db      	uxtb	r3, r3
 8001914:	2b01      	cmp	r3, #1
 8001916:	d12e      	bne.n	8001976 <HAL_CAN_Start+0x72>
 8001918:	687b      	ldr	r3, [r7, #4]
 800191a:	2202      	movs	r2, #2
 800191c:	f883 2020 	strb.w	r2, [r3, #32]
 8001920:	687b      	ldr	r3, [r7, #4]
 8001922:	681b      	ldr	r3, [r3, #0]
 8001924:	681a      	ldr	r2, [r3, #0]
 8001926:	687b      	ldr	r3, [r7, #4]
 8001928:	681b      	ldr	r3, [r3, #0]
 800192a:	f022 0201 	bic.w	r2, r2, #1
 800192e:	601a      	str	r2, [r3, #0]
 8001930:	f7ff fdf6 	bl	8001520 <HAL_GetTick>
 8001934:	60f8      	str	r0, [r7, #12]
 8001936:	e012      	b.n	800195e <HAL_CAN_Start+0x5a>
 8001938:	f7ff fdf2 	bl	8001520 <HAL_GetTick>
 800193c:	4602      	mov	r2, r0
 800193e:	68fb      	ldr	r3, [r7, #12]
 8001940:	1ad3      	subs	r3, r2, r3
 8001942:	2b0a      	cmp	r3, #10
 8001944:	d90b      	bls.n	800195e <HAL_CAN_Start+0x5a>
 8001946:	687b      	ldr	r3, [r7, #4]
 8001948:	6a5b      	ldr	r3, [r3, #36]	@ 0x24
 800194a:	f443 3200 	orr.w	r2, r3, #131072	@ 0x20000
 800194e:	687b      	ldr	r3, [r7, #4]
 8001950:	625a      	str	r2, [r3, #36]	@ 0x24
 8001952:	687b      	ldr	r3, [r7, #4]
 8001954:	2205      	movs	r2, #5
 8001956:	f883 2020 	strb.w	r2, [r3, #32]
 800195a:	2301      	movs	r3, #1
 800195c:	e012      	b.n	8001984 <HAL_CAN_Start+0x80>
 800195e:	687b      	ldr	r3, [r7, #4]
 8001960:	681b      	ldr	r3, [r3, #0]
 8001962:	685b      	ldr	r3, [r3, #4]
 8001964:	f003 0301 	and.w	r3, r3, #1
 8001968:	2b00      	cmp	r3, #0
 800196a:	d1e5      	bne.n	8001938 <HAL_CAN_Start+0x34>
 800196c:	687b      	ldr	r3, [r7, #4]
 800196e:	2200      	movs	r2, #0
 8001970:	625a      	str	r2, [r3, #36]	@ 0x24
 8001972:	2300      	movs	r3, #0
 8001974:	e006      	b.n	8001984 <HAL_CAN_Start+0x80>
 8001976:	687b      	ldr	r3, [r7, #4]
 8001978:	6a5b      	ldr	r3, [r3, #36]	@ 0x24
 800197a:	f443 2200 	orr.w	r2, r3, #524288	@ 0x80000
 800197e:	687b      	ldr	r3, [r7, #4]
 8001980:	625a      	str	r2, [r3, #36]	@ 0x24
 8001982:	2301      	movs	r3, #1
 8001984:	4618      	mov	r0, r3
 8001986:	3710      	adds	r7, #16
 8001988:	46bd      	mov	sp, r7
 800198a:	bd80      	pop	{r7, pc}

0800198c <HAL_CAN_GetRxMessage>:
 800198c:	b480      	push	{r7}
 800198e:	b087      	sub	sp, #28
 8001990:	af00      	add	r7, sp, #0
 8001992:	60f8      	str	r0, [r7, #12]
 8001994:	60b9      	str	r1, [r7, #8]
 8001996:	607a      	str	r2, [r7, #4]
 8001998:	603b      	str	r3, [r7, #0]
 800199a:	68fb      	ldr	r3, [r7, #12]
 800199c:	f893 3020 	ldrb.w	r3, [r3, #32]
 80019a0:	75fb      	strb	r3, [r7, #23]
 80019a2:	7dfb      	ldrb	r3, [r7, #23]
 80019a4:	2b01      	cmp	r3, #1
 80019a6:	d003      	beq.n	80019b0 <HAL_CAN_GetRxMessage+0x24>
 80019a8:	7dfb      	ldrb	r3, [r7, #23]
 80019aa:	2b02      	cmp	r3, #2
 80019ac:	f040 8103 	bne.w	8001bb6 <HAL_CAN_GetRxMessage+0x22a>
 80019b0:	68bb      	ldr	r3, [r7, #8]
 80019b2:	2b00      	cmp	r3, #0
 80019b4:	d10e      	bne.n	80019d4 <HAL_CAN_GetRxMessage+0x48>
 80019b6:	68fb      	ldr	r3, [r7, #12]
 80019b8:	681b      	ldr	r3, [r3, #0]
 80019ba:	68db      	ldr	r3, [r3, #12]
 80019bc:	f003 0303 	and.w	r3, r3, #3
 80019c0:	2b00      	cmp	r3, #0
 80019c2:	d116      	bne.n	80019f2 <HAL_CAN_GetRxMessage+0x66>
 80019c4:	68fb      	ldr	r3, [r7, #12]
 80019c6:	6a5b      	ldr	r3, [r3, #36]	@ 0x24
 80019c8:	f443 1200 	orr.w	r2, r3, #2097152	@ 0x200000
 80019cc:	68fb      	ldr	r3, [r7, #12]
 80019ce:	625a      	str	r2, [r3, #36]	@ 0x24
 80019d0:	2301      	movs	r3, #1
 80019d2:	e0f7      	b.n	8001bc4 <HAL_CAN_GetRxMessage+0x238>
 80019d4:	68fb      	ldr	r3, [r7, #12]
 80019d6:	681b      	ldr	r3, [r3, #0]
 80019d8:	691b      	ldr	r3, [r3, #16]
 80019da:	f003 0303 	and.w	r3, r3, #3
 80019de:	2b00      	cmp	r3, #0
 80019e0:	d107      	bne.n	80019f2 <HAL_CAN_GetRxMessage+0x66>
 80019e2:	68fb      	ldr	r3, [r7, #12]
 80019e4:	6a5b      	ldr	r3, [r3, #36]	@ 0x24
 80019e6:	f443 1200 	orr.w	r2, r3, #2097152	@ 0x200000
 80019ea:	68fb      	ldr	r3, [r7, #12]
 80019ec:	625a      	str	r2, [r3, #36]	@ 0x24
 80019ee:	2301      	movs	r3, #1
 80019f0:	e0e8      	b.n	8001bc4 <HAL_CAN_GetRxMessage+0x238>
 80019f2:	68fb      	ldr	r3, [r7, #12]
 80019f4:	681a      	ldr	r2, [r3, #0]
 80019f6:	68bb      	ldr	r3, [r7, #8]
 80019f8:	331b      	adds	r3, #27
 80019fa:	011b      	lsls	r3, r3, #4
 80019fc:	4413      	add	r3, r2
 80019fe:	681b      	ldr	r3, [r3, #0]
 8001a00:	f003 0204 	and.w	r2, r3, #4
 8001a04:	687b      	ldr	r3, [r7, #4]
 8001a06:	609a      	str	r2, [r3, #8]
 8001a08:	687b      	ldr	r3, [r7, #4]
 8001a0a:	689b      	ldr	r3, [r3, #8]
 8001a0c:	2b00      	cmp	r3, #0
 8001a0e:	d10c      	bne.n	8001a2a <HAL_CAN_GetRxMessage+0x9e>
 8001a10:	68fb      	ldr	r3, [r7, #12]
 8001a12:	681a      	ldr	r2, [r3, #0]
 8001a14:	68bb      	ldr	r3, [r7, #8]
 8001a16:	331b      	adds	r3, #27
 8001a18:	011b      	lsls	r3, r3, #4
 8001a1a:	4413      	add	r3, r2
 8001a1c:	681b      	ldr	r3, [r3, #0]
 8001a1e:	0d5b      	lsrs	r3, r3, #21
 8001a20:	f3c3 020a 	ubfx	r2, r3, #0, #11
 8001a24:	687b      	ldr	r3, [r7, #4]
 8001a26:	601a      	str	r2, [r3, #0]
 8001a28:	e00b      	b.n	8001a42 <HAL_CAN_GetRxMessage+0xb6>
 8001a2a:	68fb      	ldr	r3, [r7, #12]
 8001a2c:	681a      	ldr	r2, [r3, #0]
 8001a2e:	68bb      	ldr	r3, [r7, #8]
 8001a30:	331b      	adds	r3, #27
 8001a32:	011b      	lsls	r3, r3, #4
 8001a34:	4413      	add	r3, r2
 8001a36:	681b      	ldr	r3, [r3, #0]
 8001a38:	08db      	lsrs	r3, r3, #3
 8001a3a:	f023 4260 	bic.w	r2, r3, #3758096384	@ 0xe0000000
 8001a3e:	687b      	ldr	r3, [r7, #4]
 8001a40:	605a      	str	r2, [r3, #4]
 8001a42:	68fb      	ldr	r3, [r7, #12]
 8001a44:	681a      	ldr	r2, [r3, #0]
 8001a46:	68bb      	ldr	r3, [r7, #8]
 8001a48:	331b      	adds	r3, #27
 8001a4a:	011b      	lsls	r3, r3, #4
 8001a4c:	4413      	add	r3, r2
 8001a4e:	681b      	ldr	r3, [r3, #0]
 8001a50:	f003 0202 	and.w	r2, r3, #2
 8001a54:	687b      	ldr	r3, [r7, #4]
 8001a56:	60da      	str	r2, [r3, #12]
 8001a58:	68fb      	ldr	r3, [r7, #12]
 8001a5a:	681a      	ldr	r2, [r3, #0]
 8001a5c:	68bb      	ldr	r3, [r7, #8]
 8001a5e:	331b      	adds	r3, #27
 8001a60:	011b      	lsls	r3, r3, #4
 8001a62:	4413      	add	r3, r2
 8001a64:	3304      	adds	r3, #4
 8001a66:	681b      	ldr	r3, [r3, #0]
 8001a68:	f003 0308 	and.w	r3, r3, #8
 8001a6c:	2b00      	cmp	r3, #0
 8001a6e:	d003      	beq.n	8001a78 <HAL_CAN_GetRxMessage+0xec>
 8001a70:	687b      	ldr	r3, [r7, #4]
 8001a72:	2208      	movs	r2, #8
 8001a74:	611a      	str	r2, [r3, #16]
 8001a76:	e00b      	b.n	8001a90 <HAL_CAN_GetRxMessage+0x104>
 8001a78:	68fb      	ldr	r3, [r7, #12]
 8001a7a:	681a      	ldr	r2, [r3, #0]
 8001a7c:	68bb      	ldr	r3, [r7, #8]
 8001a7e:	331b      	adds	r3, #27
 8001a80:	011b      	lsls	r3, r3, #4
 8001a82:	4413      	add	r3, r2
 8001a84:	3304      	adds	r3, #4
 8001a86:	681b      	ldr	r3, [r3, #0]
 8001a88:	f003 020f 	and.w	r2, r3, #15
 8001a8c:	687b      	ldr	r3, [r7, #4]
 8001a8e:	611a      	str	r2, [r3, #16]
 8001a90:	68fb      	ldr	r3, [r7, #12]
 8001a92:	681a      	ldr	r2, [r3, #0]
 8001a94:	68bb      	ldr	r3, [r7, #8]
 8001a96:	331b      	adds	r3, #27
 8001a98:	011b      	lsls	r3, r3, #4
 8001a9a:	4413      	add	r3, r2
 8001a9c:	3304      	adds	r3, #4
 8001a9e:	681b      	ldr	r3, [r3, #0]
 8001aa0:	0a1b      	lsrs	r3, r3, #8
 8001aa2:	b2da      	uxtb	r2, r3
 8001aa4:	687b      	ldr	r3, [r7, #4]
 8001aa6:	619a      	str	r2, [r3, #24]
 8001aa8:	68fb      	ldr	r3, [r7, #12]
 8001aaa:	681a      	ldr	r2, [r3, #0]
 8001aac:	68bb      	ldr	r3, [r7, #8]
 8001aae:	331b      	adds	r3, #27
 8001ab0:	011b      	lsls	r3, r3, #4
 8001ab2:	4413      	add	r3, r2
 8001ab4:	3304      	adds	r3, #4
 8001ab6:	681b      	ldr	r3, [r3, #0]
 8001ab8:	0c1b      	lsrs	r3, r3, #16
 8001aba:	b29a      	uxth	r2, r3
 8001abc:	687b      	ldr	r3, [r7, #4]
 8001abe:	615a      	str	r2, [r3, #20]
 8001ac0:	68fb      	ldr	r3, [r7, #12]
 8001ac2:	681a      	ldr	r2, [r3, #0]
 8001ac4:	68bb      	ldr	r3, [r7, #8]
 8001ac6:	011b      	lsls	r3, r3, #4
 8001ac8:	4413      	add	r3, r2
 8001aca:	f503 73dc 	add.w	r3, r3, #440	@ 0x1b8
 8001ace:	681b      	ldr	r3, [r3, #0]
 8001ad0:	b2da      	uxtb	r2, r3
 8001ad2:	683b      	ldr	r3, [r7, #0]
 8001ad4:	701a      	strb	r2, [r3, #0]
 8001ad6:	68fb      	ldr	r3, [r7, #12]
 8001ad8:	681a      	ldr	r2, [r3, #0]
 8001ada:	68bb      	ldr	r3, [r7, #8]
 8001adc:	011b      	lsls	r3, r3, #4
 8001ade:	4413      	add	r3, r2
 8001ae0:	f503 73dc 	add.w	r3, r3, #440	@ 0x1b8
 8001ae4:	681b      	ldr	r3, [r3, #0]
 8001ae6:	0a1a      	lsrs	r2, r3, #8
 8001ae8:	683b      	ldr	r3, [r7, #0]
 8001aea:	3301      	adds	r3, #1
 8001aec:	b2d2      	uxtb	r2, r2
 8001aee:	701a      	strb	r2, [r3, #0]
 8001af0:	68fb      	ldr	r3, [r7, #12]
 8001af2:	681a      	ldr	r2, [r3, #0]
 8001af4:	68bb      	ldr	r3, [r7, #8]
 8001af6:	011b      	lsls	r3, r3, #4
 8001af8:	4413      	add	r3, r2
 8001afa:	f503 73dc 	add.w	r3, r3, #440	@ 0x1b8
 8001afe:	681b      	ldr	r3, [r3, #0]
 8001b00:	0c1a      	lsrs	r2, r3, #16
 8001b02:	683b      	ldr	r3, [r7, #0]
 8001b04:	3302      	adds	r3, #2
 8001b06:	b2d2      	uxtb	r2, r2
 8001b08:	701a      	strb	r2, [r3, #0]
 8001b0a:	68fb      	ldr	r3, [r7, #12]
 8001b0c:	681a      	ldr	r2, [r3, #0]
 8001b0e:	68bb      	ldr	r3, [r7, #8]
 8001b10:	011b      	lsls	r3, r3, #4
 8001b12:	4413      	add	r3, r2
 8001b14:	f503 73dc 	add.w	r3, r3, #440	@ 0x1b8
 8001b18:	681b      	ldr	r3, [r3, #0]
 8001b1a:	0e1a      	lsrs	r2, r3, #24
 8001b1c:	683b      	ldr	r3, [r7, #0]
 8001b1e:	3303      	adds	r3, #3
 8001b20:	b2d2      	uxtb	r2, r2
 8001b22:	701a      	strb	r2, [r3, #0]
 8001b24:	68fb      	ldr	r3, [r7, #12]
 8001b26:	681a      	ldr	r2, [r3, #0]
 8001b28:	68bb      	ldr	r3, [r7, #8]
 8001b2a:	011b      	lsls	r3, r3, #4
 8001b2c:	4413      	add	r3, r2
 8001b2e:	f503 73de 	add.w	r3, r3, #444	@ 0x1bc
 8001b32:	681a      	ldr	r2, [r3, #0]
 8001b34:	683b      	ldr	r3, [r7, #0]
 8001b36:	3304      	adds	r3, #4
 8001b38:	b2d2      	uxtb	r2, r2
 8001b3a:	701a      	strb	r2, [r3, #0]
 8001b3c:	68fb      	ldr	r3, [r7, #12]
 8001b3e:	681a      	ldr	r2, [r3, #0]
 8001b40:	68bb      	ldr	r3, [r7, #8]
 8001b42:	011b      	lsls	r3, r3, #4
 8001b44:	4413      	add	r3, r2
 8001b46:	f503 73de 	add.w	r3, r3, #444	@ 0x1bc
 8001b4a:	681b      	ldr	r3, [r3, #0]
 8001b4c:	0a1a      	lsrs	r2, r3, #8
 8001b4e:	683b      	ldr	r3, [r7, #0]
 8001b50:	3305      	adds	r3, #5
 8001b52:	b2d2      	uxtb	r2, r2
 8001b54:	701a      	strb	r2, [r3, #0]
 8001b56:	68fb      	ldr	r3, [r7, #12]
 8001b58:	681a      	ldr	r2, [r3, #0]
 8001b5a:	68bb      	ldr	r3, [r7, #8]
 8001b5c:	011b      	lsls	r3, r3, #4
 8001b5e:	4413      	add	r3, r2
 8001b60:	f503 73de 	add.w	r3, r3, #444	@ 0x1bc
 8001b64:	681b      	ldr	r3, [r3, #0]
 8001b66:	0c1a      	lsrs	r2, r3, #16
 8001b68:	683b      	ldr	r3, [r7, #0]
 8001b6a:	3306      	adds	r3, #6
 8001b6c:	b2d2      	uxtb	r2, r2
 8001b6e:	701a      	strb	r2, [r3, #0]
 8001b70:	68fb      	ldr	r3, [r7, #12]
 8001b72:	681a      	ldr	r2, [r3, #0]
 8001b74:	68bb      	ldr	r3, [r7, #8]
 8001b76:	011b      	lsls	r3, r3, #4
 8001b78:	4413      	add	r3, r2
 8001b7a:	f503 73de 	add.w	r3, r3, #444	@ 0x1bc
 8001b7e:	681b      	ldr	r3, [r3, #0]
 8001b80:	0e1a      	lsrs	r2, r3, #24
 8001b82:	683b      	ldr	r3, [r7, #0]
 8001b84:	3307      	adds	r3, #7
 8001b86:	b2d2      	uxtb	r2, r2
 8001b88:	701a      	strb	r2, [r3, #0]
 8001b8a:	68bb      	ldr	r3, [r7, #8]
 8001b8c:	2b00      	cmp	r3, #0
 8001b8e:	d108      	bne.n	8001ba2 <HAL_CAN_GetRxMessage+0x216>
 8001b90:	68fb      	ldr	r3, [r7, #12]
 8001b92:	681b      	ldr	r3, [r3, #0]
 8001b94:	68da      	ldr	r2, [r3, #12]
 8001b96:	68fb      	ldr	r3, [r7, #12]
 8001b98:	681b      	ldr	r3, [r3, #0]
 8001b9a:	f042 0220 	orr.w	r2, r2, #32
 8001b9e:	60da      	str	r2, [r3, #12]
 8001ba0:	e007      	b.n	8001bb2 <HAL_CAN_GetRxMessage+0x226>
 8001ba2:	68fb      	ldr	r3, [r7, #12]
 8001ba4:	681b      	ldr	r3, [r3, #0]
 8001ba6:	691a      	ldr	r2, [r3, #16]
 8001ba8:	68fb      	ldr	r3, [r7, #12]
 8001baa:	681b      	ldr	r3, [r3, #0]
 8001bac:	f042 0220 	orr.w	r2, r2, #32
 8001bb0:	611a      	str	r2, [r3, #16]
 8001bb2:	2300      	movs	r3, #0
 8001bb4:	e006      	b.n	8001bc4 <HAL_CAN_GetRxMessage+0x238>
 8001bb6:	68fb      	ldr	r3, [r7, #12]
 8001bb8:	6a5b      	ldr	r3, [r3, #36]	@ 0x24
 8001bba:	f443 2280 	orr.w	r2, r3, #262144	@ 0x40000
 8001bbe:	68fb      	ldr	r3, [r7, #12]
 8001bc0:	625a      	str	r2, [r3, #36]	@ 0x24
 8001bc2:	2301      	movs	r3, #1
 8001bc4:	4618      	mov	r0, r3
 8001bc6:	371c      	adds	r7, #28
 8001bc8:	46bd      	mov	sp, r7
 8001bca:	bc80      	pop	{r7}
 8001bcc:	4770      	bx	lr

08001bce <HAL_CAN_ActivateNotification>:
 8001bce:	b480      	push	{r7}
 8001bd0:	b085      	sub	sp, #20
 8001bd2:	af00      	add	r7, sp, #0
 8001bd4:	6078      	str	r0, [r7, #4]
 8001bd6:	6039      	str	r1, [r7, #0]
 8001bd8:	687b      	ldr	r3, [r7, #4]
 8001bda:	f893 3020 	ldrb.w	r3, [r3, #32]
 8001bde:	73fb      	strb	r3, [r7, #15]
 8001be0:	7bfb      	ldrb	r3, [r7, #15]
 8001be2:	2b01      	cmp	r3, #1
 8001be4:	d002      	beq.n	8001bec <HAL_CAN_ActivateNotification+0x1e>
 8001be6:	7bfb      	ldrb	r3, [r7, #15]
 8001be8:	2b02      	cmp	r3, #2
 8001bea:	d109      	bne.n	8001c00 <HAL_CAN_ActivateNotification+0x32>
 8001bec:	687b      	ldr	r3, [r7, #4]
 8001bee:	681b      	ldr	r3, [r3, #0]
 8001bf0:	6959      	ldr	r1, [r3, #20]
 8001bf2:	687b      	ldr	r3, [r7, #4]
 8001bf4:	681b      	ldr	r3, [r3, #0]
 8001bf6:	683a      	ldr	r2, [r7, #0]
 8001bf8:	430a      	orrs	r2, r1
 8001bfa:	615a      	str	r2, [r3, #20]
 8001bfc:	2300      	movs	r3, #0
 8001bfe:	e006      	b.n	8001c0e <HAL_CAN_ActivateNotification+0x40>
 8001c00:	687b      	ldr	r3, [r7, #4]
 8001c02:	6a5b      	ldr	r3, [r3, #36]	@ 0x24
 8001c04:	f443 2280 	orr.w	r2, r3, #262144	@ 0x40000
 8001c08:	687b      	ldr	r3, [r7, #4]
 8001c0a:	625a      	str	r2, [r3, #36]	@ 0x24
 8001c0c:	2301      	movs	r3, #1
 8001c0e:	4618      	mov	r0, r3
 8001c10:	3714      	adds	r7, #20
 8001c12:	46bd      	mov	sp, r7
 8001c14:	bc80      	pop	{r7}
 8001c16:	4770      	bx	lr

08001c18 <HAL_CAN_IRQHandler>:
 8001c18:	b580      	push	{r7, lr}
 8001c1a:	b08a      	sub	sp, #40	@ 0x28
 8001c1c:	af00      	add	r7, sp, #0
 8001c1e:	6078      	str	r0, [r7, #4]
 8001c20:	2300      	movs	r3, #0
 8001c22:	627b      	str	r3, [r7, #36]	@ 0x24
 8001c24:	687b      	ldr	r3, [r7, #4]
 8001c26:	681b      	ldr	r3, [r3, #0]
 8001c28:	695b      	ldr	r3, [r3, #20]
 8001c2a:	623b      	str	r3, [r7, #32]
 8001c2c:	687b      	ldr	r3, [r7, #4]
 8001c2e:	681b      	ldr	r3, [r3, #0]
 8001c30:	685b      	ldr	r3, [r3, #4]
 8001c32:	61fb      	str	r3, [r7, #28]
 8001c34:	687b      	ldr	r3, [r7, #4]
 8001c36:	681b      	ldr	r3, [r3, #0]
 8001c38:	689b      	ldr	r3, [r3, #8]
 8001c3a:	61bb      	str	r3, [r7, #24]
 8001c3c:	687b      	ldr	r3, [r7, #4]
 8001c3e:	681b      	ldr	r3, [r3, #0]
 8001c40:	68db      	ldr	r3, [r3, #12]
 8001c42:	617b      	str	r3, [r7, #20]
 8001c44:	687b      	ldr	r3, [r7, #4]
 8001c46:	681b      	ldr	r3, [r3, #0]
 8001c48:	691b      	ldr	r3, [r3, #16]
 8001c4a:	613b      	str	r3, [r7, #16]
 8001c4c:	687b      	ldr	r3, [r7, #4]
 8001c4e:	681b      	ldr	r3, [r3, #0]
 8001c50:	699b      	ldr	r3, [r3, #24]
 8001c52:	60fb      	str	r3, [r7, #12]
 8001c54:	6a3b      	ldr	r3, [r7, #32]
 8001c56:	f003 0301 	and.w	r3, r3, #1
 8001c5a:	2b00      	cmp	r3, #0
 8001c5c:	d07c      	beq.n	8001d58 <HAL_CAN_IRQHandler+0x140>
 8001c5e:	69bb      	ldr	r3, [r7, #24]
 8001c60:	f003 0301 	and.w	r3, r3, #1
 8001c64:	2b00      	cmp	r3, #0
 8001c66:	d023      	beq.n	8001cb0 <HAL_CAN_IRQHandler+0x98>
 8001c68:	687b      	ldr	r3, [r7, #4]
 8001c6a:	681b      	ldr	r3, [r3, #0]
 8001c6c:	2201      	movs	r2, #1
 8001c6e:	609a      	str	r2, [r3, #8]
 8001c70:	69bb      	ldr	r3, [r7, #24]
 8001c72:	f003 0302 	and.w	r3, r3, #2
 8001c76:	2b00      	cmp	r3, #0
 8001c78:	d003      	beq.n	8001c82 <HAL_CAN_IRQHandler+0x6a>
 8001c7a:	6878      	ldr	r0, [r7, #4]
 8001c7c:	f000 f983 	bl	8001f86 <HAL_CAN_TxMailbox0CompleteCallback>
 8001c80:	e016      	b.n	8001cb0 <HAL_CAN_IRQHandler+0x98>
 8001c82:	69bb      	ldr	r3, [r7, #24]
 8001c84:	f003 0304 	and.w	r3, r3, #4
 8001c88:	2b00      	cmp	r3, #0
 8001c8a:	d004      	beq.n	8001c96 <HAL_CAN_IRQHandler+0x7e>
 8001c8c:	6a7b      	ldr	r3, [r7, #36]	@ 0x24
 8001c8e:	f443 6300 	orr.w	r3, r3, #2048	@ 0x800
 8001c92:	627b      	str	r3, [r7, #36]	@ 0x24
 8001c94:	e00c      	b.n	8001cb0 <HAL_CAN_IRQHandler+0x98>
 8001c96:	69bb      	ldr	r3, [r7, #24]
 8001c98:	f003 0308 	and.w	r3, r3, #8
 8001c9c:	2b00      	cmp	r3, #0
 8001c9e:	d004      	beq.n	8001caa <HAL_CAN_IRQHandler+0x92>
 8001ca0:	6a7b      	ldr	r3, [r7, #36]	@ 0x24
 8001ca2:	f443 5380 	orr.w	r3, r3, #4096	@ 0x1000
 8001ca6:	627b      	str	r3, [r7, #36]	@ 0x24
 8001ca8:	e002      	b.n	8001cb0 <HAL_CAN_IRQHandler+0x98>
 8001caa:	6878      	ldr	r0, [r7, #4]
 8001cac:	f000 f986 	bl	8001fbc <HAL_CAN_TxMailbox0AbortCallback>
 8001cb0:	69bb      	ldr	r3, [r7, #24]
 8001cb2:	f403 7380 	and.w	r3, r3, #256	@ 0x100
 8001cb6:	2b00      	cmp	r3, #0
 8001cb8:	d024      	beq.n	8001d04 <HAL_CAN_IRQHandler+0xec>
 8001cba:	687b      	ldr	r3, [r7, #4]
 8001cbc:	681b      	ldr	r3, [r3, #0]
 8001cbe:	f44f 7280 	mov.w	r2, #256	@ 0x100
 8001cc2:	609a      	str	r2, [r3, #8]
 8001cc4:	69bb      	ldr	r3, [r7, #24]
 8001cc6:	f403 7300 	and.w	r3, r3, #512	@ 0x200
 8001cca:	2b00      	cmp	r3, #0
 8001ccc:	d003      	beq.n	8001cd6 <HAL_CAN_IRQHandler+0xbe>
 8001cce:	6878      	ldr	r0, [r7, #4]
 8001cd0:	f000 f962 	bl	8001f98 <HAL_CAN_TxMailbox1CompleteCallback>
 8001cd4:	e016      	b.n	8001d04 <HAL_CAN_IRQHandler+0xec>
 8001cd6:	69bb      	ldr	r3, [r7, #24]
 8001cd8:	f403 6380 	and.w	r3, r3, #1024	@ 0x400
 8001cdc:	2b00      	cmp	r3, #0
 8001cde:	d004      	beq.n	8001cea <HAL_CAN_IRQHandler+0xd2>
 8001ce0:	6a7b      	ldr	r3, [r7, #36]	@ 0x24
 8001ce2:	f443 5300 	orr.w	r3, r3, #8192	@ 0x2000
 8001ce6:	627b      	str	r3, [r7, #36]	@ 0x24
 8001ce8:	e00c      	b.n	8001d04 <HAL_CAN_IRQHandler+0xec>
 8001cea:	69bb      	ldr	r3, [r7, #24]
 8001cec:	f403 6300 	and.w	r3, r3, #2048	@ 0x800
 8001cf0:	2b00      	cmp	r3, #0
 8001cf2:	d004      	beq.n	8001cfe <HAL_CAN_IRQHandler+0xe6>
 8001cf4:	6a7b      	ldr	r3, [r7, #36]	@ 0x24
 8001cf6:	f443 4380 	orr.w	r3, r3, #16384	@ 0x4000
 8001cfa:	627b      	str	r3, [r7, #36]	@ 0x24
 8001cfc:	e002      	b.n	8001d04 <HAL_CAN_IRQHandler+0xec>
 8001cfe:	6878      	ldr	r0, [r7, #4]
 8001d00:	f000 f965 	bl	8001fce <HAL_CAN_TxMailbox1AbortCallback>
 8001d04:	69bb      	ldr	r3, [r7, #24]
 8001d06:	f403 3380 	and.w	r3, r3, #65536	@ 0x10000
 8001d0a:	2b00      	cmp	r3, #0
 8001d0c:	d024      	beq.n	8001d58 <HAL_CAN_IRQHandler+0x140>
 8001d0e:	687b      	ldr	r3, [r7, #4]
 8001d10:	681b      	ldr	r3, [r3, #0]
 8001d12:	f44f 3280 	mov.w	r2, #65536	@ 0x10000
 8001d16:	609a      	str	r2, [r3, #8]
 8001d18:	69bb      	ldr	r3, [r7, #24]
 8001d1a:	f403 3300 	and.w	r3, r3, #131072	@ 0x20000
 8001d1e:	2b00      	cmp	r3, #0
 8001d20:	d003      	beq.n	8001d2a <HAL_CAN_IRQHandler+0x112>
 8001d22:	6878      	ldr	r0, [r7, #4]
 8001d24:	f000 f941 	bl	8001faa <HAL_CAN_TxMailbox2CompleteCallback>
 8001d28:	e016      	b.n	8001d58 <HAL_CAN_IRQHandler+0x140>
 8001d2a:	69bb      	ldr	r3, [r7, #24]
 8001d2c:	f403 2380 	and.w	r3, r3, #262144	@ 0x40000
 8001d30:	2b00      	cmp	r3, #0
 8001d32:	d004      	beq.n	8001d3e <HAL_CAN_IRQHandler+0x126>
 8001d34:	6a7b      	ldr	r3, [r7, #36]	@ 0x24
 8001d36:	f443 4300 	orr.w	r3, r3, #32768	@ 0x8000
 8001d3a:	627b      	str	r3, [r7, #36]	@ 0x24
 8001d3c:	e00c      	b.n	8001d58 <HAL_CAN_IRQHandler+0x140>
 8001d3e:	69bb      	ldr	r3, [r7, #24]
 8001d40:	f403 2300 	and.w	r3, r3, #524288	@ 0x80000
 8001d44:	2b00      	cmp	r3, #0
 8001d46:	d004      	beq.n	8001d52 <HAL_CAN_IRQHandler+0x13a>
 8001d48:	6a7b      	ldr	r3, [r7, #36]	@ 0x24
 8001d4a:	f443 3380 	orr.w	r3, r3, #65536	@ 0x10000
 8001d4e:	627b      	str	r3, [r7, #36]	@ 0x24
 8001d50:	e002      	b.n	8001d58 <HAL_CAN_IRQHandler+0x140>
 8001d52:	6878      	ldr	r0, [r7, #4]
 8001d54:	f000 f944 	bl	8001fe0 <HAL_CAN_TxMailbox2AbortCallback>
 8001d58:	6a3b      	ldr	r3, [r7, #32]
 8001d5a:	f003 0308 	and.w	r3, r3, #8
 8001d5e:	2b00      	cmp	r3, #0
 8001d60:	d00c      	beq.n	8001d7c <HAL_CAN_IRQHandler+0x164>
 8001d62:	697b      	ldr	r3, [r7, #20]
 8001d64:	f003 0310 	and.w	r3, r3, #16
 8001d68:	2b00      	cmp	r3, #0
 8001d6a:	d007      	beq.n	8001d7c <HAL_CAN_IRQHandler+0x164>
 8001d6c:	6a7b      	ldr	r3, [r7, #36]	@ 0x24
 8001d6e:	f443 7300 	orr.w	r3, r3, #512	@ 0x200
 8001d72:	627b      	str	r3, [r7, #36]	@ 0x24
 8001d74:	687b      	ldr	r3, [r7, #4]
 8001d76:	681b      	ldr	r3, [r3, #0]
 8001d78:	2210      	movs	r2, #16
 8001d7a:	60da      	str	r2, [r3, #12]
 8001d7c:	6a3b      	ldr	r3, [r7, #32]
 8001d7e:	f003 0304 	and.w	r3, r3, #4
 8001d82:	2b00      	cmp	r3, #0
 8001d84:	d00b      	beq.n	8001d9e <HAL_CAN_IRQHandler+0x186>
 8001d86:	697b      	ldr	r3, [r7, #20]
 8001d88:	f003 0308 	and.w	r3, r3, #8
 8001d8c:	2b00      	cmp	r3, #0
 8001d8e:	d006      	beq.n	8001d9e <HAL_CAN_IRQHandler+0x186>
 8001d90:	687b      	ldr	r3, [r7, #4]
 8001d92:	681b      	ldr	r3, [r3, #0]
 8001d94:	2208      	movs	r2, #8
 8001d96:	60da      	str	r2, [r3, #12]
 8001d98:	6878      	ldr	r0, [r7, #4]
 8001d9a:	f000 f92a 	bl	8001ff2 <HAL_CAN_RxFifo0FullCallback>
 8001d9e:	6a3b      	ldr	r3, [r7, #32]
 8001da0:	f003 0302 	and.w	r3, r3, #2
 8001da4:	2b00      	cmp	r3, #0
 8001da6:	d009      	beq.n	8001dbc <HAL_CAN_IRQHandler+0x1a4>
 8001da8:	687b      	ldr	r3, [r7, #4]
 8001daa:	681b      	ldr	r3, [r3, #0]
 8001dac:	68db      	ldr	r3, [r3, #12]
 8001dae:	f003 0303 	and.w	r3, r3, #3
 8001db2:	2b00      	cmp	r3, #0
 8001db4:	d002      	beq.n	8001dbc <HAL_CAN_IRQHandler+0x1a4>
 8001db6:	6878      	ldr	r0, [r7, #4]
 8001db8:	f7fe fa36 	bl	8000228 <HAL_CAN_RxFifo0MsgPendingCallback>
 8001dbc:	6a3b      	ldr	r3, [r7, #32]
 8001dbe:	f003 0340 	and.w	r3, r3, #64	@ 0x40
 8001dc2:	2b00      	cmp	r3, #0
 8001dc4:	d00c      	beq.n	8001de0 <HAL_CAN_IRQHandler+0x1c8>
 8001dc6:	693b      	ldr	r3, [r7, #16]
 8001dc8:	f003 0310 	and.w	r3, r3, #16
 8001dcc:	2b00      	cmp	r3, #0
 8001dce:	d007      	beq.n	8001de0 <HAL_CAN_IRQHandler+0x1c8>
 8001dd0:	6a7b      	ldr	r3, [r7, #36]	@ 0x24
 8001dd2:	f443 6380 	orr.w	r3, r3, #1024	@ 0x400
 8001dd6:	627b      	str	r3, [r7, #36]	@ 0x24
 8001dd8:	687b      	ldr	r3, [r7, #4]
 8001dda:	681b      	ldr	r3, [r3, #0]
 8001ddc:	2210      	movs	r2, #16
 8001dde:	611a      	str	r2, [r3, #16]
 8001de0:	6a3b      	ldr	r3, [r7, #32]
 8001de2:	f003 0320 	and.w	r3, r3, #32
 8001de6:	2b00      	cmp	r3, #0
 8001de8:	d00b      	beq.n	8001e02 <HAL_CAN_IRQHandler+0x1ea>
 8001dea:	693b      	ldr	r3, [r7, #16]
 8001dec:	f003 0308 	and.w	r3, r3, #8
 8001df0:	2b00      	cmp	r3, #0
 8001df2:	d006      	beq.n	8001e02 <HAL_CAN_IRQHandler+0x1ea>
 8001df4:	687b      	ldr	r3, [r7, #4]
 8001df6:	681b      	ldr	r3, [r3, #0]
 8001df8:	2208      	movs	r2, #8
 8001dfa:	611a      	str	r2, [r3, #16]
 8001dfc:	6878      	ldr	r0, [r7, #4]
 8001dfe:	f000 f90a 	bl	8002016 <HAL_CAN_RxFifo1FullCallback>
 8001e02:	6a3b      	ldr	r3, [r7, #32]
 8001e04:	f003 0310 	and.w	r3, r3, #16
 8001e08:	2b00      	cmp	r3, #0
 8001e0a:	d009      	beq.n	8001e20 <HAL_CAN_IRQHandler+0x208>
 8001e0c:	687b      	ldr	r3, [r7, #4]
 8001e0e:	681b      	ldr	r3, [r3, #0]
 8001e10:	691b      	ldr	r3, [r3, #16]
 8001e12:	f003 0303 	and.w	r3, r3, #3
 8001e16:	2b00      	cmp	r3, #0
 8001e18:	d002      	beq.n	8001e20 <HAL_CAN_IRQHandler+0x208>
 8001e1a:	6878      	ldr	r0, [r7, #4]
 8001e1c:	f000 f8f2 	bl	8002004 <HAL_CAN_RxFifo1MsgPendingCallback>
 8001e20:	6a3b      	ldr	r3, [r7, #32]
 8001e22:	f403 3300 	and.w	r3, r3, #131072	@ 0x20000
 8001e26:	2b00      	cmp	r3, #0
 8001e28:	d00b      	beq.n	8001e42 <HAL_CAN_IRQHandler+0x22a>
 8001e2a:	69fb      	ldr	r3, [r7, #28]
 8001e2c:	f003 0310 	and.w	r3, r3, #16
 8001e30:	2b00      	cmp	r3, #0
 8001e32:	d006      	beq.n	8001e42 <HAL_CAN_IRQHandler+0x22a>
 8001e34:	687b      	ldr	r3, [r7, #4]
 8001e36:	681b      	ldr	r3, [r3, #0]
 8001e38:	2210      	movs	r2, #16
 8001e3a:	605a      	str	r2, [r3, #4]
 8001e3c:	6878      	ldr	r0, [r7, #4]
 8001e3e:	f000 f8f3 	bl	8002028 <HAL_CAN_SleepCallback>
 8001e42:	6a3b      	ldr	r3, [r7, #32]
 8001e44:	f403 3380 	and.w	r3, r3, #65536	@ 0x10000
 8001e48:	2b00      	cmp	r3, #0
 8001e4a:	d00b      	beq.n	8001e64 <HAL_CAN_IRQHandler+0x24c>
 8001e4c:	69fb      	ldr	r3, [r7, #28]
 8001e4e:	f003 0308 	and.w	r3, r3, #8
 8001e52:	2b00      	cmp	r3, #0
 8001e54:	d006      	beq.n	8001e64 <HAL_CAN_IRQHandler+0x24c>
 8001e56:	687b      	ldr	r3, [r7, #4]
 8001e58:	681b      	ldr	r3, [r3, #0]
 8001e5a:	2208      	movs	r2, #8
 8001e5c:	605a      	str	r2, [r3, #4]
 8001e5e:	6878      	ldr	r0, [r7, #4]
 8001e60:	f000 f8eb 	bl	800203a <HAL_CAN_WakeUpFromRxMsgCallback>
 8001e64:	6a3b      	ldr	r3, [r7, #32]
 8001e66:	f403 4300 	and.w	r3, r3, #32768	@ 0x8000
 8001e6a:	2b00      	cmp	r3, #0
 8001e6c:	d07b      	beq.n	8001f66 <HAL_CAN_IRQHandler+0x34e>
 8001e6e:	69fb      	ldr	r3, [r7, #28]
 8001e70:	f003 0304 	and.w	r3, r3, #4
 8001e74:	2b00      	cmp	r3, #0
 8001e76:	d072      	beq.n	8001f5e <HAL_CAN_IRQHandler+0x346>
 8001e78:	6a3b      	ldr	r3, [r7, #32]
 8001e7a:	f403 7380 	and.w	r3, r3, #256	@ 0x100
 8001e7e:	2b00      	cmp	r3, #0
 8001e80:	d008      	beq.n	8001e94 <HAL_CAN_IRQHandler+0x27c>
 8001e82:	68fb      	ldr	r3, [r7, #12]
 8001e84:	f003 0301 	and.w	r3, r3, #1
 8001e88:	2b00      	cmp	r3, #0
 8001e8a:	d003      	beq.n	8001e94 <HAL_CAN_IRQHandler+0x27c>
 8001e8c:	6a7b      	ldr	r3, [r7, #36]	@ 0x24
 8001e8e:	f043 0301 	orr.w	r3, r3, #1
 8001e92:	627b      	str	r3, [r7, #36]	@ 0x24
 8001e94:	6a3b      	ldr	r3, [r7, #32]
 8001e96:	f403 7300 	and.w	r3, r3, #512	@ 0x200
 8001e9a:	2b00      	cmp	r3, #0
 8001e9c:	d008      	beq.n	8001eb0 <HAL_CAN_IRQHandler+0x298>
 8001e9e:	68fb      	ldr	r3, [r7, #12]
 8001ea0:	f003 0302 	and.w	r3, r3, #2
 8001ea4:	2b00      	cmp	r3, #0
 8001ea6:	d003      	beq.n	8001eb0 <HAL_CAN_IRQHandler+0x298>
 8001ea8:	6a7b      	ldr	r3, [r7, #36]	@ 0x24
 8001eaa:	f043 0302 	orr.w	r3, r3, #2
 8001eae:	627b      	str	r3, [r7, #36]	@ 0x24
 8001eb0:	6a3b      	ldr	r3, [r7, #32]
 8001eb2:	f403 6380 	and.w	r3, r3, #1024	@ 0x400
 8001eb6:	2b00      	cmp	r3, #0
 8001eb8:	d008      	beq.n	8001ecc <HAL_CAN_IRQHandler+0x2b4>
 8001eba:	68fb      	ldr	r3, [r7, #12]
 8001ebc:	f003 0304 	and.w	r3, r3, #4
 8001ec0:	2b00      	cmp	r3, #0
 8001ec2:	d003      	beq.n	8001ecc <HAL_CAN_IRQHandler+0x2b4>
 8001ec4:	6a7b      	ldr	r3, [r7, #36]	@ 0x24
 8001ec6:	f043 0304 	orr.w	r3, r3, #4
 8001eca:	627b      	str	r3, [r7, #36]	@ 0x24
 8001ecc:	6a3b      	ldr	r3, [r7, #32]
 8001ece:	f403 6300 	and.w	r3, r3, #2048	@ 0x800
 8001ed2:	2b00      	cmp	r3, #0
 8001ed4:	d043      	beq.n	8001f5e <HAL_CAN_IRQHandler+0x346>
 8001ed6:	68fb      	ldr	r3, [r7, #12]
 8001ed8:	f003 0370 	and.w	r3, r3, #112	@ 0x70
 8001edc:	2b00      	cmp	r3, #0
 8001ede:	d03e      	beq.n	8001f5e <HAL_CAN_IRQHandler+0x346>
 8001ee0:	68fb      	ldr	r3, [r7, #12]
 8001ee2:	f003 0370 	and.w	r3, r3, #112	@ 0x70
 8001ee6:	2b60      	cmp	r3, #96	@ 0x60
 8001ee8:	d02b      	beq.n	8001f42 <HAL_CAN_IRQHandler+0x32a>
 8001eea:	2b60      	cmp	r3, #96	@ 0x60
 8001eec:	d82e      	bhi.n	8001f4c <HAL_CAN_IRQHandler+0x334>
 8001eee:	2b50      	cmp	r3, #80	@ 0x50
 8001ef0:	d022      	beq.n	8001f38 <HAL_CAN_IRQHandler+0x320>
 8001ef2:	2b50      	cmp	r3, #80	@ 0x50
 8001ef4:	d82a      	bhi.n	8001f4c <HAL_CAN_IRQHandler+0x334>
 8001ef6:	2b40      	cmp	r3, #64	@ 0x40
 8001ef8:	d019      	beq.n	8001f2e <HAL_CAN_IRQHandler+0x316>
 8001efa:	2b40      	cmp	r3, #64	@ 0x40
 8001efc:	d826      	bhi.n	8001f4c <HAL_CAN_IRQHandler+0x334>
 8001efe:	2b30      	cmp	r3, #48	@ 0x30
 8001f00:	d010      	beq.n	8001f24 <HAL_CAN_IRQHandler+0x30c>
 8001f02:	2b30      	cmp	r3, #48	@ 0x30
 8001f04:	d822      	bhi.n	8001f4c <HAL_CAN_IRQHandler+0x334>
 8001f06:	2b10      	cmp	r3, #16
 8001f08:	d002      	beq.n	8001f10 <HAL_CAN_IRQHandler+0x2f8>
 8001f0a:	2b20      	cmp	r3, #32
 8001f0c:	d005      	beq.n	8001f1a <HAL_CAN_IRQHandler+0x302>
 8001f0e:	e01d      	b.n	8001f4c <HAL_CAN_IRQHandler+0x334>
 8001f10:	6a7b      	ldr	r3, [r7, #36]	@ 0x24
 8001f12:	f043 0308 	orr.w	r3, r3, #8
 8001f16:	627b      	str	r3, [r7, #36]	@ 0x24
 8001f18:	e019      	b.n	8001f4e <HAL_CAN_IRQHandler+0x336>
 8001f1a:	6a7b      	ldr	r3, [r7, #36]	@ 0x24
 8001f1c:	f043 0310 	orr.w	r3, r3, #16
 8001f20:	627b      	str	r3, [r7, #36]	@ 0x24
 8001f22:	e014      	b.n	8001f4e <HAL_CAN_IRQHandler+0x336>
 8001f24:	6a7b      	ldr	r3, [r7, #36]	@ 0x24
 8001f26:	f043 0320 	orr.w	r3, r3, #32
 8001f2a:	627b      	str	r3, [r7, #36]	@ 0x24
 8001f2c:	e00f      	b.n	8001f4e <HAL_CAN_IRQHandler+0x336>
 8001f2e:	6a7b      	ldr	r3, [r7, #36]	@ 0x24
 8001f30:	f043 0340 	orr.w	r3, r3, #64	@ 0x40
 8001f34:	627b      	str	r3, [r7, #36]	@ 0x24
 8001f36:	e00a      	b.n	8001f4e <HAL_CAN_IRQHandler+0x336>
 8001f38:	6a7b      	ldr	r3, [r7, #36]	@ 0x24
 8001f3a:	f043 0380 	orr.w	r3, r3, #128	@ 0x80
 8001f3e:	627b      	str	r3, [r7, #36]	@ 0x24
 8001f40:	e005      	b.n	8001f4e <HAL_CAN_IRQHandler+0x336>
 8001f42:	6a7b      	ldr	r3, [r7, #36]	@ 0x24
 8001f44:	f443 7380 	orr.w	r3, r3, #256	@ 0x100
 8001f48:	627b      	str	r3, [r7, #36]	@ 0x24
 8001f4a:	e000      	b.n	8001f4e <HAL_CAN_IRQHandler+0x336>
 8001f4c:	bf00      	nop
 8001f4e:	687b      	ldr	r3, [r7, #4]
 8001f50:	681b      	ldr	r3, [r3, #0]
 8001f52:	699a      	ldr	r2, [r3, #24]
 8001f54:	687b      	ldr	r3, [r7, #4]
 8001f56:	681b      	ldr	r3, [r3, #0]
 8001f58:	f022 0270 	bic.w	r2, r2, #112	@ 0x70
 8001f5c:	619a      	str	r2, [r3, #24]
 8001f5e:	687b      	ldr	r3, [r7, #4]
 8001f60:	681b      	ldr	r3, [r3, #0]
 8001f62:	2204      	movs	r2, #4
 8001f64:	605a      	str	r2, [r3, #4]
 8001f66:	6a7b      	ldr	r3, [r7, #36]	@ 0x24
 8001f68:	2b00      	cmp	r3, #0
 8001f6a:	d008      	beq.n	8001f7e <HAL_CAN_IRQHandler+0x366>
 8001f6c:	687b      	ldr	r3, [r7, #4]
 8001f6e:	6a5a      	ldr	r2, [r3, #36]	@ 0x24
 8001f70:	6a7b      	ldr	r3, [r7, #36]	@ 0x24
 8001f72:	431a      	orrs	r2, r3
 8001f74:	687b      	ldr	r3, [r7, #4]
 8001f76:	625a      	str	r2, [r3, #36]	@ 0x24
 8001f78:	6878      	ldr	r0, [r7, #4]
 8001f7a:	f000 f867 	bl	800204c <HAL_CAN_ErrorCallback>
 8001f7e:	bf00      	nop
 8001f80:	3728      	adds	r7, #40	@ 0x28
 8001f82:	46bd      	mov	sp, r7
 8001f84:	bd80      	pop	{r7, pc}

08001f86 <HAL_CAN_TxMailbox0CompleteCallback>:
 8001f86:	b480      	push	{r7}
 8001f88:	b083      	sub	sp, #12
 8001f8a:	af00      	add	r7, sp, #0
 8001f8c:	6078      	str	r0, [r7, #4]
 8001f8e:	bf00      	nop
 8001f90:	370c      	adds	r7, #12
 8001f92:	46bd      	mov	sp, r7
 8001f94:	bc80      	pop	{r7}
 8001f96:	4770      	bx	lr

08001f98 <HAL_CAN_TxMailbox1CompleteCallback>:
 8001f98:	b480      	push	{r7}
 8001f9a:	b083      	sub	sp, #12
 8001f9c:	af00      	add	r7, sp, #0
 8001f9e:	6078      	str	r0, [r7, #4]
 8001fa0:	bf00      	nop
 8001fa2:	370c      	adds	r7, #12
 8001fa4:	46bd      	mov	sp, r7
 8001fa6:	bc80      	pop	{r7}
 8001fa8:	4770      	bx	lr

08001faa <HAL_CAN_TxMailbox2CompleteCallback>:
 8001faa:	b480      	push	{r7}
 8001fac:	b083      	sub	sp, #12
 8001fae:	af00      	add	r7, sp, #0
 8001fb0:	6078      	str	r0, [r7, #4]
 8001fb2:	bf00      	nop
 8001fb4:	370c      	adds	r7, #12
 8001fb6:	46bd      	mov	sp, r7
 8001fb8:	bc80      	pop	{r7}
 8001fba:	4770      	bx	lr

08001fbc <HAL_CAN_TxMailbox0AbortCallback>:
 8001fbc:	b480      	push	{r7}
 8001fbe:	b083      	sub	sp, #12
 8001fc0:	af00      	add	r7, sp, #0
 8001fc2:	6078      	str	r0, [r7, #4]
 8001fc4:	bf00      	nop
 8001fc6:	370c      	adds	r7, #12
 8001fc8:	46bd      	mov	sp, r7
 8001fca:	bc80      	pop	{r7}
 8001fcc:	4770      	bx	lr

08001fce <HAL_CAN_TxMailbox1AbortCallback>:
 8001fce:	b480      	push	{r7}
 8001fd0:	b083      	sub	sp, #12
 8001fd2:	af00      	add	r7, sp, #0
 8001fd4:	6078      	str	r0, [r7, #4]
 8001fd6:	bf00      	nop
 8001fd8:	370c      	adds	r7, #12
 8001fda:	46bd      	mov	sp, r7
 8001fdc:	bc80      	pop	{r7}
 8001fde:	4770      	bx	lr

08001fe0 <HAL_CAN_TxMailbox2AbortCallback>:
 8001fe0:	b480      	push	{r7}
 8001fe2:	b083      	sub	sp, #12
 8001fe4:	af00      	add	r7, sp, #0
 8001fe6:	6078      	str	r0, [r7, #4]
 8001fe8:	bf00      	nop
 8001fea:	370c      	adds	r7, #12
 8001fec:	46bd      	mov	sp, r7
 8001fee:	bc80      	pop	{r7}
 8001ff0:	4770      	bx	lr

08001ff2 <HAL_CAN_RxFifo0FullCallback>:
 8001ff2:	b480      	push	{r7}
 8001ff4:	b083      	sub	sp, #12
 8001ff6:	af00      	add	r7, sp, #0
 8001ff8:	6078      	str	r0, [r7, #4]
 8001ffa:	bf00      	nop
 8001ffc:	370c      	adds	r7, #12
 8001ffe:	46bd      	mov	sp, r7
 8002000:	bc80      	pop	{r7}
 8002002:	4770      	bx	lr

08002004 <HAL_CAN_RxFifo1MsgPendingCallback>:
 8002004:	b480      	push	{r7}
 8002006:	b083      	sub	sp, #12
 8002008:	af00      	add	r7, sp, #0
 800200a:	6078      	str	r0, [r7, #4]
 800200c:	bf00      	nop
 800200e:	370c      	adds	r7, #12
 8002010:	46bd      	mov	sp, r7
 8002012:	bc80      	pop	{r7}
 8002014:	4770      	bx	lr

08002016 <HAL_CAN_RxFifo1FullCallback>:
 8002016:	b480      	push	{r7}
 8002018:	b083      	sub	sp, #12
 800201a:	af00      	add	r7, sp, #0
 800201c:	6078      	str	r0, [r7, #4]
 800201e:	bf00      	nop
 8002020:	370c      	adds	r7, #12
 8002022:	46bd      	mov	sp, r7
 8002024:	bc80      	pop	{r7}
 8002026:	4770      	bx	lr

08002028 <HAL_CAN_SleepCallback>:
 8002028:	b480      	push	{r7}
 800202a:	b083      	sub	sp, #12
 800202c:	af00      	add	r7, sp, #0
 800202e:	6078      	str	r0, [r7, #4]
 8002030:	bf00      	nop
 8002032:	370c      	adds	r7, #12
 8002034:	46bd      	mov	sp, r7
 8002036:	bc80      	pop	{r7}
 8002038:	4770      	bx	lr

0800203a <HAL_CAN_WakeUpFromRxMsgCallback>:
 800203a:	b480      	push	{r7}
 800203c:	b083      	sub	sp, #12
 800203e:	af00      	add	r7, sp, #0
 8002040:	6078      	str	r0, [r7, #4]
 8002042:	bf00      	nop
 8002044:	370c      	adds	r7, #12
 8002046:	46bd      	mov	sp, r7
 8002048:	bc80      	pop	{r7}
 800204a:	4770      	bx	lr

0800204c <HAL_CAN_ErrorCallback>:
 800204c:	b480      	push	{r7}
 800204e:	b083      	sub	sp, #12
 8002050:	af00      	add	r7, sp, #0
 8002052:	6078      	str	r0, [r7, #4]
 8002054:	bf00      	nop
 8002056:	370c      	adds	r7, #12
 8002058:	46bd      	mov	sp, r7
 800205a:	bc80      	pop	{r7}
 800205c:	4770      	bx	lr
	...

08002060 <__NVIC_SetPriorityGrouping>:
 8002060:	b480      	push	{r7}
 8002062:	b085      	sub	sp, #20
 8002064:	af00      	add	r7, sp, #0
 8002066:	6078      	str	r0, [r7, #4]
 8002068:	687b      	ldr	r3, [r7, #4]
 800206a:	f003 0307 	and.w	r3, r3, #7
 800206e:	60fb      	str	r3, [r7, #12]
 8002070:	4b0c      	ldr	r3, [pc, #48]	@ (80020a4 <__NVIC_SetPriorityGrouping+0x44>)
 8002072:	68db      	ldr	r3, [r3, #12]
 8002074:	60bb      	str	r3, [r7, #8]
 8002076:	68ba      	ldr	r2, [r7, #8]
 8002078:	f64f 03ff 	movw	r3, #63743	@ 0xf8ff
 800207c:	4013      	ands	r3, r2
 800207e:	60bb      	str	r3, [r7, #8]
 8002080:	68fb      	ldr	r3, [r7, #12]
 8002082:	021a      	lsls	r2, r3, #8
 8002084:	68bb      	ldr	r3, [r7, #8]
 8002086:	4313      	orrs	r3, r2
 8002088:	f043 63bf 	orr.w	r3, r3, #100139008	@ 0x5f80000
 800208c:	f443 3300 	orr.w	r3, r3, #131072	@ 0x20000
 8002090:	60bb      	str	r3, [r7, #8]
 8002092:	4a04      	ldr	r2, [pc, #16]	@ (80020a4 <__NVIC_SetPriorityGrouping+0x44>)
 8002094:	68bb      	ldr	r3, [r7, #8]
 8002096:	60d3      	str	r3, [r2, #12]
 8002098:	bf00      	nop
 800209a:	3714      	adds	r7, #20
 800209c:	46bd      	mov	sp, r7
 800209e:	bc80      	pop	{r7}
 80020a0:	4770      	bx	lr
 80020a2:	bf00      	nop
 80020a4:	e000ed00 	.word	0xe000ed00

080020a8 <__NVIC_GetPriorityGrouping>:
 80020a8:	b480      	push	{r7}
 80020aa:	af00      	add	r7, sp, #0
 80020ac:	4b04      	ldr	r3, [pc, #16]	@ (80020c0 <__NVIC_GetPriorityGrouping+0x18>)
 80020ae:	68db      	ldr	r3, [r3, #12]
 80020b0:	0a1b      	lsrs	r3, r3, #8
 80020b2:	f003 0307 	and.w	r3, r3, #7
 80020b6:	4618      	mov	r0, r3
 80020b8:	46bd      	mov	sp, r7
 80020ba:	bc80      	pop	{r7}
 80020bc:	4770      	bx	lr
 80020be:	bf00      	nop
 80020c0:	e000ed00 	.word	0xe000ed00

080020c4 <__NVIC_EnableIRQ>:
 80020c4:	b480      	push	{r7}
 80020c6:	b083      	sub	sp, #12
 80020c8:	af00      	add	r7, sp, #0
 80020ca:	4603      	mov	r3, r0
 80020cc:	71fb      	strb	r3, [r7, #7]
 80020ce:	f997 3007 	ldrsb.w	r3, [r7, #7]
 80020d2:	2b00      	cmp	r3, #0
 80020d4:	db0b      	blt.n	80020ee <__NVIC_EnableIRQ+0x2a>
 80020d6:	79fb      	ldrb	r3, [r7, #7]
 80020d8:	f003 021f 	and.w	r2, r3, #31
 80020dc:	4906      	ldr	r1, [pc, #24]	@ (80020f8 <__NVIC_EnableIRQ+0x34>)
 80020de:	f997 3007 	ldrsb.w	r3, [r7, #7]
 80020e2:	095b      	lsrs	r3, r3, #5
 80020e4:	2001      	movs	r0, #1
 80020e6:	fa00 f202 	lsl.w	r2, r0, r2
 80020ea:	f841 2023 	str.w	r2, [r1, r3, lsl #2]
 80020ee:	bf00      	nop
 80020f0:	370c      	adds	r7, #12
 80020f2:	46bd      	mov	sp, r7
 80020f4:	bc80      	pop	{r7}
 80020f6:	4770      	bx	lr
 80020f8:	e000e100 	.word	0xe000e100

080020fc <__NVIC_SetPriority>:
 80020fc:	b480      	push	{r7}
 80020fe:	b083      	sub	sp, #12
 8002100:	af00      	add	r7, sp, #0
 8002102:	4603      	mov	r3, r0
 8002104:	6039      	str	r1, [r7, #0]
 8002106:	71fb      	strb	r3, [r7, #7]
 8002108:	f997 3007 	ldrsb.w	r3, [r7, #7]
 800210c:	2b00      	cmp	r3, #0
 800210e:	db0a      	blt.n	8002126 <__NVIC_SetPriority+0x2a>
 8002110:	683b      	ldr	r3, [r7, #0]
 8002112:	b2da      	uxtb	r2, r3
 8002114:	490c      	ldr	r1, [pc, #48]	@ (8002148 <__NVIC_SetPriority+0x4c>)
 8002116:	f997 3007 	ldrsb.w	r3, [r7, #7]
 800211a:	0112      	lsls	r2, r2, #4
 800211c:	b2d2      	uxtb	r2, r2
 800211e:	440b      	add	r3, r1
 8002120:	f883 2300 	strb.w	r2, [r3, #768]	@ 0x300
 8002124:	e00a      	b.n	800213c <__NVIC_SetPriority+0x40>
 8002126:	683b      	ldr	r3, [r7, #0]
 8002128:	b2da      	uxtb	r2, r3
 800212a:	4908      	ldr	r1, [pc, #32]	@ (800214c <__NVIC_SetPriority+0x50>)
 800212c:	79fb      	ldrb	r3, [r7, #7]
 800212e:	f003 030f 	and.w	r3, r3, #15
 8002132:	3b04      	subs	r3, #4
 8002134:	0112      	lsls	r2, r2, #4
 8002136:	b2d2      	uxtb	r2, r2
 8002138:	440b      	add	r3, r1
 800213a:	761a      	strb	r2, [r3, #24]
 800213c:	bf00      	nop
 800213e:	370c      	adds	r7, #12
 8002140:	46bd      	mov	sp, r7
 8002142:	bc80      	pop	{r7}
 8002144:	4770      	bx	lr
 8002146:	bf00      	nop
 8002148:	e000e100 	.word	0xe000e100
 800214c:	e000ed00 	.word	0xe000ed00

08002150 <NVIC_EncodePriority>:
 8002150:	b480      	push	{r7}
 8002152:	b089      	sub	sp, #36	@ 0x24
 8002154:	af00      	add	r7, sp, #0
 8002156:	60f8      	str	r0, [r7, #12]
 8002158:	60b9      	str	r1, [r7, #8]
 800215a:	607a      	str	r2, [r7, #4]
 800215c:	68fb      	ldr	r3, [r7, #12]
 800215e:	f003 0307 	and.w	r3, r3, #7
 8002162:	61fb      	str	r3, [r7, #28]
 8002164:	69fb      	ldr	r3, [r7, #28]
 8002166:	f1c3 0307 	rsb	r3, r3, #7
 800216a:	2b04      	cmp	r3, #4
 800216c:	bf28      	it	cs
 800216e:	2304      	movcs	r3, #4
 8002170:	61bb      	str	r3, [r7, #24]
 8002172:	69fb      	ldr	r3, [r7, #28]
 8002174:	3304      	adds	r3, #4
 8002176:	2b06      	cmp	r3, #6
 8002178:	d902      	bls.n	8002180 <NVIC_EncodePriority+0x30>
 800217a:	69fb      	ldr	r3, [r7, #28]
 800217c:	3b03      	subs	r3, #3
 800217e:	e000      	b.n	8002182 <NVIC_EncodePriority+0x32>
 8002180:	2300      	movs	r3, #0
 8002182:	617b      	str	r3, [r7, #20]
 8002184:	f04f 32ff 	mov.w	r2, #4294967295
 8002188:	69bb      	ldr	r3, [r7, #24]
 800218a:	fa02 f303 	lsl.w	r3, r2, r3
 800218e:	43da      	mvns	r2, r3
 8002190:	68bb      	ldr	r3, [r7, #8]
 8002192:	401a      	ands	r2, r3
 8002194:	697b      	ldr	r3, [r7, #20]
 8002196:	409a      	lsls	r2, r3
 8002198:	f04f 31ff 	mov.w	r1, #4294967295
 800219c:	697b      	ldr	r3, [r7, #20]
 800219e:	fa01 f303 	lsl.w	r3, r1, r3
 80021a2:	43d9      	mvns	r1, r3
 80021a4:	687b      	ldr	r3, [r7, #4]
 80021a6:	400b      	ands	r3, r1
 80021a8:	4313      	orrs	r3, r2
 80021aa:	4618      	mov	r0, r3
 80021ac:	3724      	adds	r7, #36	@ 0x24
 80021ae:	46bd      	mov	sp, r7
 80021b0:	bc80      	pop	{r7}
 80021b2:	4770      	bx	lr

080021b4 <__NVIC_SystemReset>:
 80021b4:	b480      	push	{r7}
 80021b6:	af00      	add	r7, sp, #0
 80021b8:	f3bf 8f4f 	dsb	sy
 80021bc:	bf00      	nop
 80021be:	4b06      	ldr	r3, [pc, #24]	@ (80021d8 <__NVIC_SystemReset+0x24>)
 80021c0:	68db      	ldr	r3, [r3, #12]
 80021c2:	f403 62e0 	and.w	r2, r3, #1792	@ 0x700
 80021c6:	4904      	ldr	r1, [pc, #16]	@ (80021d8 <__NVIC_SystemReset+0x24>)
 80021c8:	4b04      	ldr	r3, [pc, #16]	@ (80021dc <__NVIC_SystemReset+0x28>)
 80021ca:	4313      	orrs	r3, r2
 80021cc:	60cb      	str	r3, [r1, #12]
 80021ce:	f3bf 8f4f 	dsb	sy
 80021d2:	bf00      	nop
 80021d4:	bf00      	nop
 80021d6:	e7fd      	b.n	80021d4 <__NVIC_SystemReset+0x20>
 80021d8:	e000ed00 	.word	0xe000ed00
 80021dc:	05fa0004 	.word	0x05fa0004

080021e0 <SysTick_Config>:
 80021e0:	b580      	push	{r7, lr}
 80021e2:	b082      	sub	sp, #8
 80021e4:	af00      	add	r7, sp, #0
 80021e6:	6078      	str	r0, [r7, #4]
 80021e8:	687b      	ldr	r3, [r7, #4]
 80021ea:	3b01      	subs	r3, #1
 80021ec:	f1b3 7f80 	cmp.w	r3, #16777216	@ 0x1000000
 80021f0:	d301      	bcc.n	80021f6 <SysTick_Config+0x16>
 80021f2:	2301      	movs	r3, #1
 80021f4:	e00f      	b.n	8002216 <SysTick_Config+0x36>
 80021f6:	4a0a      	ldr	r2, [pc, #40]	@ (8002220 <SysTick_Config+0x40>)
 80021f8:	687b      	ldr	r3, [r7, #4]
 80021fa:	3b01      	subs	r3, #1
 80021fc:	6053      	str	r3, [r2, #4]
 80021fe:	210f      	movs	r1, #15
 8002200:	f04f 30ff 	mov.w	r0, #4294967295
 8002204:	f7ff ff7a 	bl	80020fc <__NVIC_SetPriority>
 8002208:	4b05      	ldr	r3, [pc, #20]	@ (8002220 <SysTick_Config+0x40>)
 800220a:	2200      	movs	r2, #0
 800220c:	609a      	str	r2, [r3, #8]
 800220e:	4b04      	ldr	r3, [pc, #16]	@ (8002220 <SysTick_Config+0x40>)
 8002210:	2207      	movs	r2, #7
 8002212:	601a      	str	r2, [r3, #0]
 8002214:	2300      	movs	r3, #0
 8002216:	4618      	mov	r0, r3
 8002218:	3708      	adds	r7, #8
 800221a:	46bd      	mov	sp, r7
 800221c:	bd80      	pop	{r7, pc}
 800221e:	bf00      	nop
 8002220:	e000e010 	.word	0xe000e010

08002224 <HAL_NVIC_SetPriorityGrouping>:
 8002224:	b580      	push	{r7, lr}
 8002226:	b082      	sub	sp, #8
 8002228:	af00      	add	r7, sp, #0
 800222a:	6078      	str	r0, [r7, #4]
 800222c:	6878      	ldr	r0, [r7, #4]
 800222e:	f7ff ff17 	bl	8002060 <__NVIC_SetPriorityGrouping>
 8002232:	bf00      	nop
 8002234:	3708      	adds	r7, #8
 8002236:	46bd      	mov	sp, r7
 8002238:	bd80      	pop	{r7, pc}

0800223a <HAL_NVIC_SetPriority>:
 800223a:	b580      	push	{r7, lr}
 800223c:	b086      	sub	sp, #24
 800223e:	af00      	add	r7, sp, #0
 8002240:	4603      	mov	r3, r0
 8002242:	60b9      	str	r1, [r7, #8]
 8002244:	607a      	str	r2, [r7, #4]
 8002246:	73fb      	strb	r3, [r7, #15]
 8002248:	2300      	movs	r3, #0
 800224a:	617b      	str	r3, [r7, #20]
 800224c:	f7ff ff2c 	bl	80020a8 <__NVIC_GetPriorityGrouping>
 8002250:	6178      	str	r0, [r7, #20]
 8002252:	687a      	ldr	r2, [r7, #4]
 8002254:	68b9      	ldr	r1, [r7, #8]
 8002256:	6978      	ldr	r0, [r7, #20]
 8002258:	f7ff ff7a 	bl	8002150 <NVIC_EncodePriority>
 800225c:	4602      	mov	r2, r0
 800225e:	f997 300f 	ldrsb.w	r3, [r7, #15]
 8002262:	4611      	mov	r1, r2
 8002264:	4618      	mov	r0, r3
 8002266:	f7ff ff49 	bl	80020fc <__NVIC_SetPriority>
 800226a:	bf00      	nop
 800226c:	3718      	adds	r7, #24
 800226e:	46bd      	mov	sp, r7
 8002270:	bd80      	pop	{r7, pc}

08002272 <HAL_NVIC_EnableIRQ>:
 8002272:	b580      	push	{r7, lr}
 8002274:	b082      	sub	sp, #8
 8002276:	af00      	add	r7, sp, #0
 8002278:	4603      	mov	r3, r0
 800227a:	71fb      	strb	r3, [r7, #7]
 800227c:	f997 3007 	ldrsb.w	r3, [r7, #7]
 8002280:	4618      	mov	r0, r3
 8002282:	f7ff ff1f 	bl	80020c4 <__NVIC_EnableIRQ>
 8002286:	bf00      	nop
 8002288:	3708      	adds	r7, #8
 800228a:	46bd      	mov	sp, r7
 800228c:	bd80      	pop	{r7, pc}

0800228e <HAL_NVIC_SystemReset>:
 800228e:	b580      	push	{r7, lr}
 8002290:	af00      	add	r7, sp, #0
 8002292:	f7ff ff8f 	bl	80021b4 <__NVIC_SystemReset>

08002296 <HAL_SYSTICK_Config>:
 8002296:	b580      	push	{r7, lr}
 8002298:	b082      	sub	sp, #8
 800229a:	af00      	add	r7, sp, #0
 800229c:	6078      	str	r0, [r7, #4]
 800229e:	6878      	ldr	r0, [r7, #4]
 80022a0:	f7ff ff9e 	bl	80021e0 <SysTick_Config>
 80022a4:	4603      	mov	r3, r0
 80022a6:	4618      	mov	r0, r3
 80022a8:	3708      	adds	r7, #8
 80022aa:	46bd      	mov	sp, r7
 80022ac:	bd80      	pop	{r7, pc}
	...

080022b0 <HAL_DMA_Init>:
 80022b0:	b480      	push	{r7}
 80022b2:	b085      	sub	sp, #20
 80022b4:	af00      	add	r7, sp, #0
 80022b6:	6078      	str	r0, [r7, #4]
 80022b8:	2300      	movs	r3, #0
 80022ba:	60fb      	str	r3, [r7, #12]
 80022bc:	687b      	ldr	r3, [r7, #4]
 80022be:	2b00      	cmp	r3, #0
 80022c0:	d101      	bne.n	80022c6 <HAL_DMA_Init+0x16>
 80022c2:	2301      	movs	r3, #1
 80022c4:	e043      	b.n	800234e <HAL_DMA_Init+0x9e>
 80022c6:	687b      	ldr	r3, [r7, #4]
 80022c8:	681b      	ldr	r3, [r3, #0]
 80022ca:	461a      	mov	r2, r3
 80022cc:	4b22      	ldr	r3, [pc, #136]	@ (8002358 <HAL_DMA_Init+0xa8>)
 80022ce:	4413      	add	r3, r2
 80022d0:	4a22      	ldr	r2, [pc, #136]	@ (800235c <HAL_DMA_Init+0xac>)
 80022d2:	fba2 2303 	umull	r2, r3, r2, r3
 80022d6:	091b      	lsrs	r3, r3, #4
 80022d8:	009a      	lsls	r2, r3, #2
 80022da:	687b      	ldr	r3, [r7, #4]
 80022dc:	641a      	str	r2, [r3, #64]	@ 0x40
 80022de:	687b      	ldr	r3, [r7, #4]
 80022e0:	4a1f      	ldr	r2, [pc, #124]	@ (8002360 <HAL_DMA_Init+0xb0>)
 80022e2:	63da      	str	r2, [r3, #60]	@ 0x3c
 80022e4:	687b      	ldr	r3, [r7, #4]
 80022e6:	2202      	movs	r2, #2
 80022e8:	f883 2021 	strb.w	r2, [r3, #33]	@ 0x21
 80022ec:	687b      	ldr	r3, [r7, #4]
 80022ee:	681b      	ldr	r3, [r3, #0]
 80022f0:	681b      	ldr	r3, [r3, #0]
 80022f2:	60fb      	str	r3, [r7, #12]
 80022f4:	68fb      	ldr	r3, [r7, #12]
 80022f6:	f423 537f 	bic.w	r3, r3, #16320	@ 0x3fc0
 80022fa:	f023 0330 	bic.w	r3, r3, #48	@ 0x30
 80022fe:	60fb      	str	r3, [r7, #12]
 8002300:	687b      	ldr	r3, [r7, #4]
 8002302:	685a      	ldr	r2, [r3, #4]
 8002304:	687b      	ldr	r3, [r7, #4]
 8002306:	689b      	ldr	r3, [r3, #8]
 8002308:	431a      	orrs	r2, r3
 800230a:	687b      	ldr	r3, [r7, #4]
 800230c:	68db      	ldr	r3, [r3, #12]
 800230e:	431a      	orrs	r2, r3
 8002310:	687b      	ldr	r3, [r7, #4]
 8002312:	691b      	ldr	r3, [r3, #16]
 8002314:	431a      	orrs	r2, r3
 8002316:	687b      	ldr	r3, [r7, #4]
 8002318:	695b      	ldr	r3, [r3, #20]
 800231a:	431a      	orrs	r2, r3
 800231c:	687b      	ldr	r3, [r7, #4]
 800231e:	699b      	ldr	r3, [r3, #24]
 8002320:	431a      	orrs	r2, r3
 8002322:	687b      	ldr	r3, [r7, #4]
 8002324:	69db      	ldr	r3, [r3, #28]
 8002326:	4313      	orrs	r3, r2
 8002328:	68fa      	ldr	r2, [r7, #12]
 800232a:	4313      	orrs	r3, r2
 800232c:	60fb      	str	r3, [r7, #12]
 800232e:	687b      	ldr	r3, [r7, #4]
 8002330:	681b      	ldr	r3, [r3, #0]
 8002332:	68fa      	ldr	r2, [r7, #12]
 8002334:	601a      	str	r2, [r3, #0]
 8002336:	687b      	ldr	r3, [r7, #4]
 8002338:	2200      	movs	r2, #0
 800233a:	639a      	str	r2, [r3, #56]	@ 0x38
 800233c:	687b      	ldr	r3, [r7, #4]
 800233e:	2201      	movs	r2, #1
 8002340:	f883 2021 	strb.w	r2, [r3, #33]	@ 0x21
 8002344:	687b      	ldr	r3, [r7, #4]
 8002346:	2200      	movs	r2, #0
 8002348:	f883 2020 	strb.w	r2, [r3, #32]
 800234c:	2300      	movs	r3, #0
 800234e:	4618      	mov	r0, r3
 8002350:	3714      	adds	r7, #20
 8002352:	46bd      	mov	sp, r7
 8002354:	bc80      	pop	{r7}
 8002356:	4770      	bx	lr
 8002358:	bffdfff8 	.word	0xbffdfff8
 800235c:	cccccccd 	.word	0xcccccccd
 8002360:	40020000 	.word	0x40020000

08002364 <HAL_DMA_Start_IT>:
 8002364:	b580      	push	{r7, lr}
 8002366:	b086      	sub	sp, #24
 8002368:	af00      	add	r7, sp, #0
 800236a:	60f8      	str	r0, [r7, #12]
 800236c:	60b9      	str	r1, [r7, #8]
 800236e:	607a      	str	r2, [r7, #4]
 8002370:	603b      	str	r3, [r7, #0]
 8002372:	2300      	movs	r3, #0
 8002374:	75fb      	strb	r3, [r7, #23]
 8002376:	68fb      	ldr	r3, [r7, #12]
 8002378:	f893 3020 	ldrb.w	r3, [r3, #32]
 800237c:	2b01      	cmp	r3, #1
 800237e:	d101      	bne.n	8002384 <HAL_DMA_Start_IT+0x20>
 8002380:	2302      	movs	r3, #2
 8002382:	e04b      	b.n	800241c <HAL_DMA_Start_IT+0xb8>
 8002384:	68fb      	ldr	r3, [r7, #12]
 8002386:	2201      	movs	r2, #1
 8002388:	f883 2020 	strb.w	r2, [r3, #32]
 800238c:	68fb      	ldr	r3, [r7, #12]
 800238e:	f893 3021 	ldrb.w	r3, [r3, #33]	@ 0x21
 8002392:	b2db      	uxtb	r3, r3
 8002394:	2b01      	cmp	r3, #1
 8002396:	d13a      	bne.n	800240e <HAL_DMA_Start_IT+0xaa>
 8002398:	68fb      	ldr	r3, [r7, #12]
 800239a:	2202      	movs	r2, #2
 800239c:	f883 2021 	strb.w	r2, [r3, #33]	@ 0x21
 80023a0:	68fb      	ldr	r3, [r7, #12]
 80023a2:	2200      	movs	r2, #0
 80023a4:	639a      	str	r2, [r3, #56]	@ 0x38
 80023a6:	68fb      	ldr	r3, [r7, #12]
 80023a8:	681b      	ldr	r3, [r3, #0]
 80023aa:	681a      	ldr	r2, [r3, #0]
 80023ac:	68fb      	ldr	r3, [r7, #12]
 80023ae:	681b      	ldr	r3, [r3, #0]
 80023b0:	f022 0201 	bic.w	r2, r2, #1
 80023b4:	601a      	str	r2, [r3, #0]
 80023b6:	683b      	ldr	r3, [r7, #0]
 80023b8:	687a      	ldr	r2, [r7, #4]
 80023ba:	68b9      	ldr	r1, [r7, #8]
 80023bc:	68f8      	ldr	r0, [r7, #12]
 80023be:	f000 f9eb 	bl	8002798 <DMA_SetConfig>
 80023c2:	68fb      	ldr	r3, [r7, #12]
 80023c4:	6adb      	ldr	r3, [r3, #44]	@ 0x2c
 80023c6:	2b00      	cmp	r3, #0
 80023c8:	d008      	beq.n	80023dc <HAL_DMA_Start_IT+0x78>
 80023ca:	68fb      	ldr	r3, [r7, #12]
 80023cc:	681b      	ldr	r3, [r3, #0]
 80023ce:	681a      	ldr	r2, [r3, #0]
 80023d0:	68fb      	ldr	r3, [r7, #12]
 80023d2:	681b      	ldr	r3, [r3, #0]
 80023d4:	f042 020e 	orr.w	r2, r2, #14
 80023d8:	601a      	str	r2, [r3, #0]
 80023da:	e00f      	b.n	80023fc <HAL_DMA_Start_IT+0x98>
 80023dc:	68fb      	ldr	r3, [r7, #12]
 80023de:	681b      	ldr	r3, [r3, #0]
 80023e0:	681a      	ldr	r2, [r3, #0]
 80023e2:	68fb      	ldr	r3, [r7, #12]
 80023e4:	681b      	ldr	r3, [r3, #0]
 80023e6:	f022 0204 	bic.w	r2, r2, #4
 80023ea:	601a      	str	r2, [r3, #0]
 80023ec:	68fb      	ldr	r3, [r7, #12]
 80023ee:	681b      	ldr	r3, [r3, #0]
 80023f0:	681a      	ldr	r2, [r3, #0]
 80023f2:	68fb      	ldr	r3, [r7, #12]
 80023f4:	681b      	ldr	r3, [r3, #0]
 80023f6:	f042 020a 	orr.w	r2, r2, #10
 80023fa:	601a      	str	r2, [r3, #0]
 80023fc:	68fb      	ldr	r3, [r7, #12]
 80023fe:	681b      	ldr	r3, [r3, #0]
 8002400:	681a      	ldr	r2, [r3, #0]
 8002402:	68fb      	ldr	r3, [r7, #12]
 8002404:	681b      	ldr	r3, [r3, #0]
 8002406:	f042 0201 	orr.w	r2, r2, #1
 800240a:	601a      	str	r2, [r3, #0]
 800240c:	e005      	b.n	800241a <HAL_DMA_Start_IT+0xb6>
 800240e:	68fb      	ldr	r3, [r7, #12]
 8002410:	2200      	movs	r2, #0
 8002412:	f883 2020 	strb.w	r2, [r3, #32]
 8002416:	2302      	movs	r3, #2
 8002418:	75fb      	strb	r3, [r7, #23]
 800241a:	7dfb      	ldrb	r3, [r7, #23]
 800241c:	4618      	mov	r0, r3
 800241e:	3718      	adds	r7, #24
 8002420:	46bd      	mov	sp, r7
 8002422:	bd80      	pop	{r7, pc}

08002424 <HAL_DMA_Abort>:
 8002424:	b480      	push	{r7}
 8002426:	b085      	sub	sp, #20
 8002428:	af00      	add	r7, sp, #0
 800242a:	6078      	str	r0, [r7, #4]
 800242c:	2300      	movs	r3, #0
 800242e:	73fb      	strb	r3, [r7, #15]
 8002430:	687b      	ldr	r3, [r7, #4]
 8002432:	f893 3021 	ldrb.w	r3, [r3, #33]	@ 0x21
 8002436:	b2db      	uxtb	r3, r3
 8002438:	2b02      	cmp	r3, #2
 800243a:	d008      	beq.n	800244e <HAL_DMA_Abort+0x2a>
 800243c:	687b      	ldr	r3, [r7, #4]
 800243e:	2204      	movs	r2, #4
 8002440:	639a      	str	r2, [r3, #56]	@ 0x38
 8002442:	687b      	ldr	r3, [r7, #4]
 8002444:	2200      	movs	r2, #0
 8002446:	f883 2020 	strb.w	r2, [r3, #32]
 800244a:	2301      	movs	r3, #1
 800244c:	e020      	b.n	8002490 <HAL_DMA_Abort+0x6c>
 800244e:	687b      	ldr	r3, [r7, #4]
 8002450:	681b      	ldr	r3, [r3, #0]
 8002452:	681a      	ldr	r2, [r3, #0]
 8002454:	687b      	ldr	r3, [r7, #4]
 8002456:	681b      	ldr	r3, [r3, #0]
 8002458:	f022 020e 	bic.w	r2, r2, #14
 800245c:	601a      	str	r2, [r3, #0]
 800245e:	687b      	ldr	r3, [r7, #4]
 8002460:	681b      	ldr	r3, [r3, #0]
 8002462:	681a      	ldr	r2, [r3, #0]
 8002464:	687b      	ldr	r3, [r7, #4]
 8002466:	681b      	ldr	r3, [r3, #0]
 8002468:	f022 0201 	bic.w	r2, r2, #1
 800246c:	601a      	str	r2, [r3, #0]
 800246e:	687b      	ldr	r3, [r7, #4]
 8002470:	6c1a      	ldr	r2, [r3, #64]	@ 0x40
 8002472:	687b      	ldr	r3, [r7, #4]
 8002474:	6bdb      	ldr	r3, [r3, #60]	@ 0x3c
 8002476:	2101      	movs	r1, #1
 8002478:	fa01 f202 	lsl.w	r2, r1, r2
 800247c:	605a      	str	r2, [r3, #4]
 800247e:	687b      	ldr	r3, [r7, #4]
 8002480:	2201      	movs	r2, #1
 8002482:	f883 2021 	strb.w	r2, [r3, #33]	@ 0x21
 8002486:	687b      	ldr	r3, [r7, #4]
 8002488:	2200      	movs	r2, #0
 800248a:	f883 2020 	strb.w	r2, [r3, #32]
 800248e:	7bfb      	ldrb	r3, [r7, #15]
 8002490:	4618      	mov	r0, r3
 8002492:	3714      	adds	r7, #20
 8002494:	46bd      	mov	sp, r7
 8002496:	bc80      	pop	{r7}
 8002498:	4770      	bx	lr
	...

0800249c <HAL_DMA_Abort_IT>:
 800249c:	b580      	push	{r7, lr}
 800249e:	b084      	sub	sp, #16
 80024a0:	af00      	add	r7, sp, #0
 80024a2:	6078      	str	r0, [r7, #4]
 80024a4:	2300      	movs	r3, #0
 80024a6:	73fb      	strb	r3, [r7, #15]
 80024a8:	687b      	ldr	r3, [r7, #4]
 80024aa:	f893 3021 	ldrb.w	r3, [r3, #33]	@ 0x21
 80024ae:	b2db      	uxtb	r3, r3
 80024b0:	2b02      	cmp	r3, #2
 80024b2:	d005      	beq.n	80024c0 <HAL_DMA_Abort_IT+0x24>
 80024b4:	687b      	ldr	r3, [r7, #4]
 80024b6:	2204      	movs	r2, #4
 80024b8:	639a      	str	r2, [r3, #56]	@ 0x38
 80024ba:	2301      	movs	r3, #1
 80024bc:	73fb      	strb	r3, [r7, #15]
 80024be:	e051      	b.n	8002564 <HAL_DMA_Abort_IT+0xc8>
 80024c0:	687b      	ldr	r3, [r7, #4]
 80024c2:	681b      	ldr	r3, [r3, #0]
 80024c4:	681a      	ldr	r2, [r3, #0]
 80024c6:	687b      	ldr	r3, [r7, #4]
 80024c8:	681b      	ldr	r3, [r3, #0]
 80024ca:	f022 020e 	bic.w	r2, r2, #14
 80024ce:	601a      	str	r2, [r3, #0]
 80024d0:	687b      	ldr	r3, [r7, #4]
 80024d2:	681b      	ldr	r3, [r3, #0]
 80024d4:	681a      	ldr	r2, [r3, #0]
 80024d6:	687b      	ldr	r3, [r7, #4]
 80024d8:	681b      	ldr	r3, [r3, #0]
 80024da:	f022 0201 	bic.w	r2, r2, #1
 80024de:	601a      	str	r2, [r3, #0]
 80024e0:	687b      	ldr	r3, [r7, #4]
 80024e2:	681b      	ldr	r3, [r3, #0]
 80024e4:	4a22      	ldr	r2, [pc, #136]	@ (8002570 <HAL_DMA_Abort_IT+0xd4>)
 80024e6:	4293      	cmp	r3, r2
 80024e8:	d029      	beq.n	800253e <HAL_DMA_Abort_IT+0xa2>
 80024ea:	687b      	ldr	r3, [r7, #4]
 80024ec:	681b      	ldr	r3, [r3, #0]
 80024ee:	4a21      	ldr	r2, [pc, #132]	@ (8002574 <HAL_DMA_Abort_IT+0xd8>)
 80024f0:	4293      	cmp	r3, r2
 80024f2:	d022      	beq.n	800253a <HAL_DMA_Abort_IT+0x9e>
 80024f4:	687b      	ldr	r3, [r7, #4]
 80024f6:	681b      	ldr	r3, [r3, #0]
 80024f8:	4a1f      	ldr	r2, [pc, #124]	@ (8002578 <HAL_DMA_Abort_IT+0xdc>)
 80024fa:	4293      	cmp	r3, r2
 80024fc:	d01a      	beq.n	8002534 <HAL_DMA_Abort_IT+0x98>
 80024fe:	687b      	ldr	r3, [r7, #4]
 8002500:	681b      	ldr	r3, [r3, #0]
 8002502:	4a1e      	ldr	r2, [pc, #120]	@ (800257c <HAL_DMA_Abort_IT+0xe0>)
 8002504:	4293      	cmp	r3, r2
 8002506:	d012      	beq.n	800252e <HAL_DMA_Abort_IT+0x92>
 8002508:	687b      	ldr	r3, [r7, #4]
 800250a:	681b      	ldr	r3, [r3, #0]
 800250c:	4a1c      	ldr	r2, [pc, #112]	@ (8002580 <HAL_DMA_Abort_IT+0xe4>)
 800250e:	4293      	cmp	r3, r2
 8002510:	d00a      	beq.n	8002528 <HAL_DMA_Abort_IT+0x8c>
 8002512:	687b      	ldr	r3, [r7, #4]
 8002514:	681b      	ldr	r3, [r3, #0]
 8002516:	4a1b      	ldr	r2, [pc, #108]	@ (8002584 <HAL_DMA_Abort_IT+0xe8>)
 8002518:	4293      	cmp	r3, r2
 800251a:	d102      	bne.n	8002522 <HAL_DMA_Abort_IT+0x86>
 800251c:	f44f 1380 	mov.w	r3, #1048576	@ 0x100000
 8002520:	e00e      	b.n	8002540 <HAL_DMA_Abort_IT+0xa4>
 8002522:	f04f 7380 	mov.w	r3, #16777216	@ 0x1000000
 8002526:	e00b      	b.n	8002540 <HAL_DMA_Abort_IT+0xa4>
 8002528:	f44f 3380 	mov.w	r3, #65536	@ 0x10000
 800252c:	e008      	b.n	8002540 <HAL_DMA_Abort_IT+0xa4>
 800252e:	f44f 5380 	mov.w	r3, #4096	@ 0x1000
 8002532:	e005      	b.n	8002540 <HAL_DMA_Abort_IT+0xa4>
 8002534:	f44f 7380 	mov.w	r3, #256	@ 0x100
 8002538:	e002      	b.n	8002540 <HAL_DMA_Abort_IT+0xa4>
 800253a:	2310      	movs	r3, #16
 800253c:	e000      	b.n	8002540 <HAL_DMA_Abort_IT+0xa4>
 800253e:	2301      	movs	r3, #1
 8002540:	4a11      	ldr	r2, [pc, #68]	@ (8002588 <HAL_DMA_Abort_IT+0xec>)
 8002542:	6053      	str	r3, [r2, #4]
 8002544:	687b      	ldr	r3, [r7, #4]
 8002546:	2201      	movs	r2, #1
 8002548:	f883 2021 	strb.w	r2, [r3, #33]	@ 0x21
 800254c:	687b      	ldr	r3, [r7, #4]
 800254e:	2200      	movs	r2, #0
 8002550:	f883 2020 	strb.w	r2, [r3, #32]
 8002554:	687b      	ldr	r3, [r7, #4]
 8002556:	6b5b      	ldr	r3, [r3, #52]	@ 0x34
 8002558:	2b00      	cmp	r3, #0
 800255a:	d003      	beq.n	8002564 <HAL_DMA_Abort_IT+0xc8>
 800255c:	687b      	ldr	r3, [r7, #4]
 800255e:	6b5b      	ldr	r3, [r3, #52]	@ 0x34
 8002560:	6878      	ldr	r0, [r7, #4]
 8002562:	4798      	blx	r3
 8002564:	7bfb      	ldrb	r3, [r7, #15]
 8002566:	4618      	mov	r0, r3
 8002568:	3710      	adds	r7, #16
 800256a:	46bd      	mov	sp, r7
 800256c:	bd80      	pop	{r7, pc}
 800256e:	bf00      	nop
 8002570:	40020008 	.word	0x40020008
 8002574:	4002001c 	.word	0x4002001c
 8002578:	40020030 	.word	0x40020030
 800257c:	40020044 	.word	0x40020044
 8002580:	40020058 	.word	0x40020058
 8002584:	4002006c 	.word	0x4002006c
 8002588:	40020000 	.word	0x40020000

0800258c <HAL_DMA_IRQHandler>:
 800258c:	b580      	push	{r7, lr}
 800258e:	b084      	sub	sp, #16
 8002590:	af00      	add	r7, sp, #0
 8002592:	6078      	str	r0, [r7, #4]
 8002594:	687b      	ldr	r3, [r7, #4]
 8002596:	6bdb      	ldr	r3, [r3, #60]	@ 0x3c
 8002598:	681b      	ldr	r3, [r3, #0]
 800259a:	60fb      	str	r3, [r7, #12]
 800259c:	687b      	ldr	r3, [r7, #4]
 800259e:	681b      	ldr	r3, [r3, #0]
 80025a0:	681b      	ldr	r3, [r3, #0]
 80025a2:	60bb      	str	r3, [r7, #8]
 80025a4:	687b      	ldr	r3, [r7, #4]
 80025a6:	6c1b      	ldr	r3, [r3, #64]	@ 0x40
 80025a8:	2204      	movs	r2, #4
 80025aa:	409a      	lsls	r2, r3
 80025ac:	68fb      	ldr	r3, [r7, #12]
 80025ae:	4013      	ands	r3, r2
 80025b0:	2b00      	cmp	r3, #0
 80025b2:	d04f      	beq.n	8002654 <HAL_DMA_IRQHandler+0xc8>
 80025b4:	68bb      	ldr	r3, [r7, #8]
 80025b6:	f003 0304 	and.w	r3, r3, #4
 80025ba:	2b00      	cmp	r3, #0
 80025bc:	d04a      	beq.n	8002654 <HAL_DMA_IRQHandler+0xc8>
 80025be:	687b      	ldr	r3, [r7, #4]
 80025c0:	681b      	ldr	r3, [r3, #0]
 80025c2:	681b      	ldr	r3, [r3, #0]
 80025c4:	f003 0320 	and.w	r3, r3, #32
 80025c8:	2b00      	cmp	r3, #0
 80025ca:	d107      	bne.n	80025dc <HAL_DMA_IRQHandler+0x50>
 80025cc:	687b      	ldr	r3, [r7, #4]
 80025ce:	681b      	ldr	r3, [r3, #0]
 80025d0:	681a      	ldr	r2, [r3, #0]
 80025d2:	687b      	ldr	r3, [r7, #4]
 80025d4:	681b      	ldr	r3, [r3, #0]
 80025d6:	f022 0204 	bic.w	r2, r2, #4
 80025da:	601a      	str	r2, [r3, #0]
 80025dc:	687b      	ldr	r3, [r7, #4]
 80025de:	681b      	ldr	r3, [r3, #0]
 80025e0:	4a66      	ldr	r2, [pc, #408]	@ (800277c <HAL_DMA_IRQHandler+0x1f0>)
 80025e2:	4293      	cmp	r3, r2
 80025e4:	d029      	beq.n	800263a <HAL_DMA_IRQHandler+0xae>
 80025e6:	687b      	ldr	r3, [r7, #4]
 80025e8:	681b      	ldr	r3, [r3, #0]
 80025ea:	4a65      	ldr	r2, [pc, #404]	@ (8002780 <HAL_DMA_IRQHandler+0x1f4>)
 80025ec:	4293      	cmp	r3, r2
 80025ee:	d022      	beq.n	8002636 <HAL_DMA_IRQHandler+0xaa>
 80025f0:	687b      	ldr	r3, [r7, #4]
 80025f2:	681b      	ldr	r3, [r3, #0]
 80025f4:	4a63      	ldr	r2, [pc, #396]	@ (8002784 <HAL_DMA_IRQHandler+0x1f8>)
 80025f6:	4293      	cmp	r3, r2
 80025f8:	d01a      	beq.n	8002630 <HAL_DMA_IRQHandler+0xa4>
 80025fa:	687b      	ldr	r3, [r7, #4]
 80025fc:	681b      	ldr	r3, [r3, #0]
 80025fe:	4a62      	ldr	r2, [pc, #392]	@ (8002788 <HAL_DMA_IRQHandler+0x1fc>)
 8002600:	4293      	cmp	r3, r2
 8002602:	d012      	beq.n	800262a <HAL_DMA_IRQHandler+0x9e>
 8002604:	687b      	ldr	r3, [r7, #4]
 8002606:	681b      	ldr	r3, [r3, #0]
 8002608:	4a60      	ldr	r2, [pc, #384]	@ (800278c <HAL_DMA_IRQHandler+0x200>)
 800260a:	4293      	cmp	r3, r2
 800260c:	d00a      	beq.n	8002624 <HAL_DMA_IRQHandler+0x98>
 800260e:	687b      	ldr	r3, [r7, #4]
 8002610:	681b      	ldr	r3, [r3, #0]
 8002612:	4a5f      	ldr	r2, [pc, #380]	@ (8002790 <HAL_DMA_IRQHandler+0x204>)
 8002614:	4293      	cmp	r3, r2
 8002616:	d102      	bne.n	800261e <HAL_DMA_IRQHandler+0x92>
 8002618:	f44f 0380 	mov.w	r3, #4194304	@ 0x400000
 800261c:	e00e      	b.n	800263c <HAL_DMA_IRQHandler+0xb0>
 800261e:	f04f 6380 	mov.w	r3, #67108864	@ 0x4000000
 8002622:	e00b      	b.n	800263c <HAL_DMA_IRQHandler+0xb0>
 8002624:	f44f 2380 	mov.w	r3, #262144	@ 0x40000
 8002628:	e008      	b.n	800263c <HAL_DMA_IRQHandler+0xb0>
 800262a:	f44f 4380 	mov.w	r3, #16384	@ 0x4000
 800262e:	e005      	b.n	800263c <HAL_DMA_IRQHandler+0xb0>
 8002630:	f44f 6380 	mov.w	r3, #1024	@ 0x400
 8002634:	e002      	b.n	800263c <HAL_DMA_IRQHandler+0xb0>
 8002636:	2340      	movs	r3, #64	@ 0x40
 8002638:	e000      	b.n	800263c <HAL_DMA_IRQHandler+0xb0>
 800263a:	2304      	movs	r3, #4
 800263c:	4a55      	ldr	r2, [pc, #340]	@ (8002794 <HAL_DMA_IRQHandler+0x208>)
 800263e:	6053      	str	r3, [r2, #4]
 8002640:	687b      	ldr	r3, [r7, #4]
 8002642:	6adb      	ldr	r3, [r3, #44]	@ 0x2c
 8002644:	2b00      	cmp	r3, #0
 8002646:	f000 8094 	beq.w	8002772 <HAL_DMA_IRQHandler+0x1e6>
 800264a:	687b      	ldr	r3, [r7, #4]
 800264c:	6adb      	ldr	r3, [r3, #44]	@ 0x2c
 800264e:	6878      	ldr	r0, [r7, #4]
 8002650:	4798      	blx	r3
 8002652:	e08e      	b.n	8002772 <HAL_DMA_IRQHandler+0x1e6>
 8002654:	687b      	ldr	r3, [r7, #4]
 8002656:	6c1b      	ldr	r3, [r3, #64]	@ 0x40
 8002658:	2202      	movs	r2, #2
 800265a:	409a      	lsls	r2, r3
 800265c:	68fb      	ldr	r3, [r7, #12]
 800265e:	4013      	ands	r3, r2
 8002660:	2b00      	cmp	r3, #0
 8002662:	d056      	beq.n	8002712 <HAL_DMA_IRQHandler+0x186>
 8002664:	68bb      	ldr	r3, [r7, #8]
 8002666:	f003 0302 	and.w	r3, r3, #2
 800266a:	2b00      	cmp	r3, #0
 800266c:	d051      	beq.n	8002712 <HAL_DMA_IRQHandler+0x186>
 800266e:	687b      	ldr	r3, [r7, #4]
 8002670:	681b      	ldr	r3, [r3, #0]
 8002672:	681b      	ldr	r3, [r3, #0]
 8002674:	f003 0320 	and.w	r3, r3, #32
 8002678:	2b00      	cmp	r3, #0
 800267a:	d10b      	bne.n	8002694 <HAL_DMA_IRQHandler+0x108>
 800267c:	687b      	ldr	r3, [r7, #4]
 800267e:	681b      	ldr	r3, [r3, #0]
 8002680:	681a      	ldr	r2, [r3, #0]
 8002682:	687b      	ldr	r3, [r7, #4]
 8002684:	681b      	ldr	r3, [r3, #0]
 8002686:	f022 020a 	bic.w	r2, r2, #10
 800268a:	601a      	str	r2, [r3, #0]
 800268c:	687b      	ldr	r3, [r7, #4]
 800268e:	2201      	movs	r2, #1
 8002690:	f883 2021 	strb.w	r2, [r3, #33]	@ 0x21
 8002694:	687b      	ldr	r3, [r7, #4]
 8002696:	681b      	ldr	r3, [r3, #0]
 8002698:	4a38      	ldr	r2, [pc, #224]	@ (800277c <HAL_DMA_IRQHandler+0x1f0>)
 800269a:	4293      	cmp	r3, r2
 800269c:	d029      	beq.n	80026f2 <HAL_DMA_IRQHandler+0x166>
 800269e:	687b      	ldr	r3, [r7, #4]
 80026a0:	681b      	ldr	r3, [r3, #0]
 80026a2:	4a37      	ldr	r2, [pc, #220]	@ (8002780 <HAL_DMA_IRQHandler+0x1f4>)
 80026a4:	4293      	cmp	r3, r2
 80026a6:	d022      	beq.n	80026ee <HAL_DMA_IRQHandler+0x162>
 80026a8:	687b      	ldr	r3, [r7, #4]
 80026aa:	681b      	ldr	r3, [r3, #0]
 80026ac:	4a35      	ldr	r2, [pc, #212]	@ (8002784 <HAL_DMA_IRQHandler+0x1f8>)
 80026ae:	4293      	cmp	r3, r2
 80026b0:	d01a      	beq.n	80026e8 <HAL_DMA_IRQHandler+0x15c>
 80026b2:	687b      	ldr	r3, [r7, #4]
 80026b4:	681b      	ldr	r3, [r3, #0]
 80026b6:	4a34      	ldr	r2, [pc, #208]	@ (8002788 <HAL_DMA_IRQHandler+0x1fc>)
 80026b8:	4293      	cmp	r3, r2
 80026ba:	d012      	beq.n	80026e2 <HAL_DMA_IRQHandler+0x156>
 80026bc:	687b      	ldr	r3, [r7, #4]
 80026be:	681b      	ldr	r3, [r3, #0]
 80026c0:	4a32      	ldr	r2, [pc, #200]	@ (800278c <HAL_DMA_IRQHandler+0x200>)
 80026c2:	4293      	cmp	r3, r2
 80026c4:	d00a      	beq.n	80026dc <HAL_DMA_IRQHandler+0x150>
 80026c6:	687b      	ldr	r3, [r7, #4]
 80026c8:	681b      	ldr	r3, [r3, #0]
 80026ca:	4a31      	ldr	r2, [pc, #196]	@ (8002790 <HAL_DMA_IRQHandler+0x204>)
 80026cc:	4293      	cmp	r3, r2
 80026ce:	d102      	bne.n	80026d6 <HAL_DMA_IRQHandler+0x14a>
 80026d0:	f44f 1300 	mov.w	r3, #2097152	@ 0x200000
 80026d4:	e00e      	b.n	80026f4 <HAL_DMA_IRQHandler+0x168>
 80026d6:	f04f 7300 	mov.w	r3, #33554432	@ 0x2000000
 80026da:	e00b      	b.n	80026f4 <HAL_DMA_IRQHandler+0x168>
 80026dc:	f44f 3300 	mov.w	r3, #131072	@ 0x20000
 80026e0:	e008      	b.n	80026f4 <HAL_DMA_IRQHandler+0x168>
 80026e2:	f44f 5300 	mov.w	r3, #8192	@ 0x2000
 80026e6:	e005      	b.n	80026f4 <HAL_DMA_IRQHandler+0x168>
 80026e8:	f44f 7300 	mov.w	r3, #512	@ 0x200
 80026ec:	e002      	b.n	80026f4 <HAL_DMA_IRQHandler+0x168>
 80026ee:	2320      	movs	r3, #32
 80026f0:	e000      	b.n	80026f4 <HAL_DMA_IRQHandler+0x168>
 80026f2:	2302      	movs	r3, #2
 80026f4:	4a27      	ldr	r2, [pc, #156]	@ (8002794 <HAL_DMA_IRQHandler+0x208>)
 80026f6:	6053      	str	r3, [r2, #4]
 80026f8:	687b      	ldr	r3, [r7, #4]
 80026fa:	2200      	movs	r2, #0
 80026fc:	f883 2020 	strb.w	r2, [r3, #32]
 8002700:	687b      	ldr	r3, [r7, #4]
 8002702:	6a9b      	ldr	r3, [r3, #40]	@ 0x28
 8002704:	2b00      	cmp	r3, #0
 8002706:	d034      	beq.n	8002772 <HAL_DMA_IRQHandler+0x1e6>
 8002708:	687b      	ldr	r3, [r7, #4]
 800270a:	6a9b      	ldr	r3, [r3, #40]	@ 0x28
 800270c:	6878      	ldr	r0, [r7, #4]
 800270e:	4798      	blx	r3
 8002710:	e02f      	b.n	8002772 <HAL_DMA_IRQHandler+0x1e6>
 8002712:	687b      	ldr	r3, [r7, #4]
 8002714:	6c1b      	ldr	r3, [r3, #64]	@ 0x40
 8002716:	2208      	movs	r2, #8
 8002718:	409a      	lsls	r2, r3
 800271a:	68fb      	ldr	r3, [r7, #12]
 800271c:	4013      	ands	r3, r2
 800271e:	2b00      	cmp	r3, #0
 8002720:	d028      	beq.n	8002774 <HAL_DMA_IRQHandler+0x1e8>
 8002722:	68bb      	ldr	r3, [r7, #8]
 8002724:	f003 0308 	and.w	r3, r3, #8
 8002728:	2b00      	cmp	r3, #0
 800272a:	d023      	beq.n	8002774 <HAL_DMA_IRQHandler+0x1e8>
 800272c:	687b      	ldr	r3, [r7, #4]
 800272e:	681b      	ldr	r3, [r3, #0]
 8002730:	681a      	ldr	r2, [r3, #0]
 8002732:	687b      	ldr	r3, [r7, #4]
 8002734:	681b      	ldr	r3, [r3, #0]
 8002736:	f022 020e 	bic.w	r2, r2, #14
 800273a:	601a      	str	r2, [r3, #0]
 800273c:	687b      	ldr	r3, [r7, #4]
 800273e:	6c1a      	ldr	r2, [r3, #64]	@ 0x40
 8002740:	687b      	ldr	r3, [r7, #4]
 8002742:	6bdb      	ldr	r3, [r3, #60]	@ 0x3c
 8002744:	2101      	movs	r1, #1
 8002746:	fa01 f202 	lsl.w	r2, r1, r2
 800274a:	605a      	str	r2, [r3, #4]
 800274c:	687b      	ldr	r3, [r7, #4]
 800274e:	2201      	movs	r2, #1
 8002750:	639a      	str	r2, [r3, #56]	@ 0x38
 8002752:	687b      	ldr	r3, [r7, #4]
 8002754:	2201      	movs	r2, #1
 8002756:	f883 2021 	strb.w	r2, [r3, #33]	@ 0x21
 800275a:	687b      	ldr	r3, [r7, #4]
 800275c:	2200      	movs	r2, #0
 800275e:	f883 2020 	strb.w	r2, [r3, #32]
 8002762:	687b      	ldr	r3, [r7, #4]
 8002764:	6b1b      	ldr	r3, [r3, #48]	@ 0x30
 8002766:	2b00      	cmp	r3, #0
 8002768:	d004      	beq.n	8002774 <HAL_DMA_IRQHandler+0x1e8>
 800276a:	687b      	ldr	r3, [r7, #4]
 800276c:	6b1b      	ldr	r3, [r3, #48]	@ 0x30
 800276e:	6878      	ldr	r0, [r7, #4]
 8002770:	4798      	blx	r3
 8002772:	bf00      	nop
 8002774:	bf00      	nop
 8002776:	3710      	adds	r7, #16
 8002778:	46bd      	mov	sp, r7
 800277a:	bd80      	pop	{r7, pc}
 800277c:	40020008 	.word	0x40020008
 8002780:	4002001c 	.word	0x4002001c
 8002784:	40020030 	.word	0x40020030
 8002788:	40020044 	.word	0x40020044
 800278c:	40020058 	.word	0x40020058
 8002790:	4002006c 	.word	0x4002006c
 8002794:	40020000 	.word	0x40020000

08002798 <DMA_SetConfig>:
 8002798:	b480      	push	{r7}
 800279a:	b085      	sub	sp, #20
 800279c:	af00      	add	r7, sp, #0
 800279e:	60f8      	str	r0, [r7, #12]
 80027a0:	60b9      	str	r1, [r7, #8]
 80027a2:	607a      	str	r2, [r7, #4]
 80027a4:	603b      	str	r3, [r7, #0]
 80027a6:	68fb      	ldr	r3, [r7, #12]
 80027a8:	6c1a      	ldr	r2, [r3, #64]	@ 0x40
 80027aa:	68fb      	ldr	r3, [r7, #12]
 80027ac:	6bdb      	ldr	r3, [r3, #60]	@ 0x3c
 80027ae:	2101      	movs	r1, #1
 80027b0:	fa01 f202 	lsl.w	r2, r1, r2
 80027b4:	605a      	str	r2, [r3, #4]
 80027b6:	68fb      	ldr	r3, [r7, #12]
 80027b8:	681b      	ldr	r3, [r3, #0]
 80027ba:	683a      	ldr	r2, [r7, #0]
 80027bc:	605a      	str	r2, [r3, #4]
 80027be:	68fb      	ldr	r3, [r7, #12]
 80027c0:	685b      	ldr	r3, [r3, #4]
 80027c2:	2b10      	cmp	r3, #16
 80027c4:	d108      	bne.n	80027d8 <DMA_SetConfig+0x40>
 80027c6:	68fb      	ldr	r3, [r7, #12]
 80027c8:	681b      	ldr	r3, [r3, #0]
 80027ca:	687a      	ldr	r2, [r7, #4]
 80027cc:	609a      	str	r2, [r3, #8]
 80027ce:	68fb      	ldr	r3, [r7, #12]
 80027d0:	681b      	ldr	r3, [r3, #0]
 80027d2:	68ba      	ldr	r2, [r7, #8]
 80027d4:	60da      	str	r2, [r3, #12]
 80027d6:	e007      	b.n	80027e8 <DMA_SetConfig+0x50>
 80027d8:	68fb      	ldr	r3, [r7, #12]
 80027da:	681b      	ldr	r3, [r3, #0]
 80027dc:	68ba      	ldr	r2, [r7, #8]
 80027de:	609a      	str	r2, [r3, #8]
 80027e0:	68fb      	ldr	r3, [r7, #12]
 80027e2:	681b      	ldr	r3, [r3, #0]
 80027e4:	687a      	ldr	r2, [r7, #4]
 80027e6:	60da      	str	r2, [r3, #12]
 80027e8:	bf00      	nop
 80027ea:	3714      	adds	r7, #20
 80027ec:	46bd      	mov	sp, r7
 80027ee:	bc80      	pop	{r7}
 80027f0:	4770      	bx	lr
	...

080027f4 <HAL_GPIO_Init>:
 80027f4:	b480      	push	{r7}
 80027f6:	b08b      	sub	sp, #44	@ 0x2c
 80027f8:	af00      	add	r7, sp, #0
 80027fa:	6078      	str	r0, [r7, #4]
 80027fc:	6039      	str	r1, [r7, #0]
 80027fe:	2300      	movs	r3, #0
 8002800:	627b      	str	r3, [r7, #36]	@ 0x24
 8002802:	2300      	movs	r3, #0
 8002804:	623b      	str	r3, [r7, #32]
 8002806:	e169      	b.n	8002adc <HAL_GPIO_Init+0x2e8>
 8002808:	2201      	movs	r2, #1
 800280a:	6a7b      	ldr	r3, [r7, #36]	@ 0x24
 800280c:	fa02 f303 	lsl.w	r3, r2, r3
 8002810:	61fb      	str	r3, [r7, #28]
 8002812:	683b      	ldr	r3, [r7, #0]
 8002814:	681b      	ldr	r3, [r3, #0]
 8002816:	69fa      	ldr	r2, [r7, #28]
 8002818:	4013      	ands	r3, r2
 800281a:	61bb      	str	r3, [r7, #24]
 800281c:	69ba      	ldr	r2, [r7, #24]
 800281e:	69fb      	ldr	r3, [r7, #28]
 8002820:	429a      	cmp	r2, r3
 8002822:	f040 8158 	bne.w	8002ad6 <HAL_GPIO_Init+0x2e2>
 8002826:	683b      	ldr	r3, [r7, #0]
 8002828:	685b      	ldr	r3, [r3, #4]
 800282a:	4a9a      	ldr	r2, [pc, #616]	@ (8002a94 <HAL_GPIO_Init+0x2a0>)
 800282c:	4293      	cmp	r3, r2
 800282e:	d05e      	beq.n	80028ee <HAL_GPIO_Init+0xfa>
 8002830:	4a98      	ldr	r2, [pc, #608]	@ (8002a94 <HAL_GPIO_Init+0x2a0>)
 8002832:	4293      	cmp	r3, r2
 8002834:	d875      	bhi.n	8002922 <HAL_GPIO_Init+0x12e>
 8002836:	4a98      	ldr	r2, [pc, #608]	@ (8002a98 <HAL_GPIO_Init+0x2a4>)
 8002838:	4293      	cmp	r3, r2
 800283a:	d058      	beq.n	80028ee <HAL_GPIO_Init+0xfa>
 800283c:	4a96      	ldr	r2, [pc, #600]	@ (8002a98 <HAL_GPIO_Init+0x2a4>)
 800283e:	4293      	cmp	r3, r2
 8002840:	d86f      	bhi.n	8002922 <HAL_GPIO_Init+0x12e>
 8002842:	4a96      	ldr	r2, [pc, #600]	@ (8002a9c <HAL_GPIO_Init+0x2a8>)
 8002844:	4293      	cmp	r3, r2
 8002846:	d052      	beq.n	80028ee <HAL_GPIO_Init+0xfa>
 8002848:	4a94      	ldr	r2, [pc, #592]	@ (8002a9c <HAL_GPIO_Init+0x2a8>)
 800284a:	4293      	cmp	r3, r2
 800284c:	d869      	bhi.n	8002922 <HAL_GPIO_Init+0x12e>
 800284e:	4a94      	ldr	r2, [pc, #592]	@ (8002aa0 <HAL_GPIO_Init+0x2ac>)
 8002850:	4293      	cmp	r3, r2
 8002852:	d04c      	beq.n	80028ee <HAL_GPIO_Init+0xfa>
 8002854:	4a92      	ldr	r2, [pc, #584]	@ (8002aa0 <HAL_GPIO_Init+0x2ac>)
 8002856:	4293      	cmp	r3, r2
 8002858:	d863      	bhi.n	8002922 <HAL_GPIO_Init+0x12e>
 800285a:	4a92      	ldr	r2, [pc, #584]	@ (8002aa4 <HAL_GPIO_Init+0x2b0>)
 800285c:	4293      	cmp	r3, r2
 800285e:	d046      	beq.n	80028ee <HAL_GPIO_Init+0xfa>
 8002860:	4a90      	ldr	r2, [pc, #576]	@ (8002aa4 <HAL_GPIO_Init+0x2b0>)
 8002862:	4293      	cmp	r3, r2
 8002864:	d85d      	bhi.n	8002922 <HAL_GPIO_Init+0x12e>
 8002866:	2b12      	cmp	r3, #18
 8002868:	d82a      	bhi.n	80028c0 <HAL_GPIO_Init+0xcc>
 800286a:	2b12      	cmp	r3, #18
 800286c:	d859      	bhi.n	8002922 <HAL_GPIO_Init+0x12e>
 800286e:	a201      	add	r2, pc, #4	@ (adr r2, 8002874 <HAL_GPIO_Init+0x80>)
 8002870:	f852 f023 	ldr.w	pc, [r2, r3, lsl #2]
 8002874:	080028ef 	.word	0x080028ef
 8002878:	080028c9 	.word	0x080028c9
 800287c:	080028db 	.word	0x080028db
 8002880:	0800291d 	.word	0x0800291d
 8002884:	08002923 	.word	0x08002923
 8002888:	08002923 	.word	0x08002923
 800288c:	08002923 	.word	0x08002923
 8002890:	08002923 	.word	0x08002923
 8002894:	08002923 	.word	0x08002923
 8002898:	08002923 	.word	0x08002923
 800289c:	08002923 	.word	0x08002923
 80028a0:	08002923 	.word	0x08002923
 80028a4:	08002923 	.word	0x08002923
 80028a8:	08002923 	.word	0x08002923
 80028ac:	08002923 	.word	0x08002923
 80028b0:	08002923 	.word	0x08002923
 80028b4:	08002923 	.word	0x08002923
 80028b8:	080028d1 	.word	0x080028d1
 80028bc:	080028e5 	.word	0x080028e5
 80028c0:	4a79      	ldr	r2, [pc, #484]	@ (8002aa8 <HAL_GPIO_Init+0x2b4>)
 80028c2:	4293      	cmp	r3, r2
 80028c4:	d013      	beq.n	80028ee <HAL_GPIO_Init+0xfa>
 80028c6:	e02c      	b.n	8002922 <HAL_GPIO_Init+0x12e>
 80028c8:	683b      	ldr	r3, [r7, #0]
 80028ca:	68db      	ldr	r3, [r3, #12]
 80028cc:	623b      	str	r3, [r7, #32]
 80028ce:	e029      	b.n	8002924 <HAL_GPIO_Init+0x130>
 80028d0:	683b      	ldr	r3, [r7, #0]
 80028d2:	68db      	ldr	r3, [r3, #12]
 80028d4:	3304      	adds	r3, #4
 80028d6:	623b      	str	r3, [r7, #32]
 80028d8:	e024      	b.n	8002924 <HAL_GPIO_Init+0x130>
 80028da:	683b      	ldr	r3, [r7, #0]
 80028dc:	68db      	ldr	r3, [r3, #12]
 80028de:	3308      	adds	r3, #8
 80028e0:	623b      	str	r3, [r7, #32]
 80028e2:	e01f      	b.n	8002924 <HAL_GPIO_Init+0x130>
 80028e4:	683b      	ldr	r3, [r7, #0]
 80028e6:	68db      	ldr	r3, [r3, #12]
 80028e8:	330c      	adds	r3, #12
 80028ea:	623b      	str	r3, [r7, #32]
 80028ec:	e01a      	b.n	8002924 <HAL_GPIO_Init+0x130>
 80028ee:	683b      	ldr	r3, [r7, #0]
 80028f0:	689b      	ldr	r3, [r3, #8]
 80028f2:	2b00      	cmp	r3, #0
 80028f4:	d102      	bne.n	80028fc <HAL_GPIO_Init+0x108>
 80028f6:	2304      	movs	r3, #4
 80028f8:	623b      	str	r3, [r7, #32]
 80028fa:	e013      	b.n	8002924 <HAL_GPIO_Init+0x130>
 80028fc:	683b      	ldr	r3, [r7, #0]
 80028fe:	689b      	ldr	r3, [r3, #8]
 8002900:	2b01      	cmp	r3, #1
 8002902:	d105      	bne.n	8002910 <HAL_GPIO_Init+0x11c>
 8002904:	2308      	movs	r3, #8
 8002906:	623b      	str	r3, [r7, #32]
 8002908:	687b      	ldr	r3, [r7, #4]
 800290a:	69fa      	ldr	r2, [r7, #28]
 800290c:	611a      	str	r2, [r3, #16]
 800290e:	e009      	b.n	8002924 <HAL_GPIO_Init+0x130>
 8002910:	2308      	movs	r3, #8
 8002912:	623b      	str	r3, [r7, #32]
 8002914:	687b      	ldr	r3, [r7, #4]
 8002916:	69fa      	ldr	r2, [r7, #28]
 8002918:	615a      	str	r2, [r3, #20]
 800291a:	e003      	b.n	8002924 <HAL_GPIO_Init+0x130>
 800291c:	2300      	movs	r3, #0
 800291e:	623b      	str	r3, [r7, #32]
 8002920:	e000      	b.n	8002924 <HAL_GPIO_Init+0x130>
 8002922:	bf00      	nop
 8002924:	69bb      	ldr	r3, [r7, #24]
 8002926:	2bff      	cmp	r3, #255	@ 0xff
 8002928:	d801      	bhi.n	800292e <HAL_GPIO_Init+0x13a>
 800292a:	687b      	ldr	r3, [r7, #4]
 800292c:	e001      	b.n	8002932 <HAL_GPIO_Init+0x13e>
 800292e:	687b      	ldr	r3, [r7, #4]
 8002930:	3304      	adds	r3, #4
 8002932:	617b      	str	r3, [r7, #20]
 8002934:	69bb      	ldr	r3, [r7, #24]
 8002936:	2bff      	cmp	r3, #255	@ 0xff
 8002938:	d802      	bhi.n	8002940 <HAL_GPIO_Init+0x14c>
 800293a:	6a7b      	ldr	r3, [r7, #36]	@ 0x24
 800293c:	009b      	lsls	r3, r3, #2
 800293e:	e002      	b.n	8002946 <HAL_GPIO_Init+0x152>
 8002940:	6a7b      	ldr	r3, [r7, #36]	@ 0x24
 8002942:	3b08      	subs	r3, #8
 8002944:	009b      	lsls	r3, r3, #2
 8002946:	613b      	str	r3, [r7, #16]
 8002948:	697b      	ldr	r3, [r7, #20]
 800294a:	681a      	ldr	r2, [r3, #0]
 800294c:	210f      	movs	r1, #15
 800294e:	693b      	ldr	r3, [r7, #16]
 8002950:	fa01 f303 	lsl.w	r3, r1, r3
 8002954:	43db      	mvns	r3, r3
 8002956:	401a      	ands	r2, r3
 8002958:	6a39      	ldr	r1, [r7, #32]
 800295a:	693b      	ldr	r3, [r7, #16]
 800295c:	fa01 f303 	lsl.w	r3, r1, r3
 8002960:	431a      	orrs	r2, r3
 8002962:	697b      	ldr	r3, [r7, #20]
 8002964:	601a      	str	r2, [r3, #0]
 8002966:	683b      	ldr	r3, [r7, #0]
 8002968:	685b      	ldr	r3, [r3, #4]
 800296a:	f003 5380 	and.w	r3, r3, #268435456	@ 0x10000000
 800296e:	2b00      	cmp	r3, #0
 8002970:	f000 80b1 	beq.w	8002ad6 <HAL_GPIO_Init+0x2e2>
 8002974:	4b4d      	ldr	r3, [pc, #308]	@ (8002aac <HAL_GPIO_Init+0x2b8>)
 8002976:	699b      	ldr	r3, [r3, #24]
 8002978:	4a4c      	ldr	r2, [pc, #304]	@ (8002aac <HAL_GPIO_Init+0x2b8>)
 800297a:	f043 0301 	orr.w	r3, r3, #1
 800297e:	6193      	str	r3, [r2, #24]
 8002980:	4b4a      	ldr	r3, [pc, #296]	@ (8002aac <HAL_GPIO_Init+0x2b8>)
 8002982:	699b      	ldr	r3, [r3, #24]
 8002984:	f003 0301 	and.w	r3, r3, #1
 8002988:	60bb      	str	r3, [r7, #8]
 800298a:	68bb      	ldr	r3, [r7, #8]
 800298c:	4a48      	ldr	r2, [pc, #288]	@ (8002ab0 <HAL_GPIO_Init+0x2bc>)
 800298e:	6a7b      	ldr	r3, [r7, #36]	@ 0x24
 8002990:	089b      	lsrs	r3, r3, #2
 8002992:	3302      	adds	r3, #2
 8002994:	f852 3023 	ldr.w	r3, [r2, r3, lsl #2]
 8002998:	60fb      	str	r3, [r7, #12]
 800299a:	6a7b      	ldr	r3, [r7, #36]	@ 0x24
 800299c:	f003 0303 	and.w	r3, r3, #3
 80029a0:	009b      	lsls	r3, r3, #2
 80029a2:	220f      	movs	r2, #15
 80029a4:	fa02 f303 	lsl.w	r3, r2, r3
 80029a8:	43db      	mvns	r3, r3
 80029aa:	68fa      	ldr	r2, [r7, #12]
 80029ac:	4013      	ands	r3, r2
 80029ae:	60fb      	str	r3, [r7, #12]
 80029b0:	687b      	ldr	r3, [r7, #4]
 80029b2:	4a40      	ldr	r2, [pc, #256]	@ (8002ab4 <HAL_GPIO_Init+0x2c0>)
 80029b4:	4293      	cmp	r3, r2
 80029b6:	d013      	beq.n	80029e0 <HAL_GPIO_Init+0x1ec>
 80029b8:	687b      	ldr	r3, [r7, #4]
 80029ba:	4a3f      	ldr	r2, [pc, #252]	@ (8002ab8 <HAL_GPIO_Init+0x2c4>)
 80029bc:	4293      	cmp	r3, r2
 80029be:	d00d      	beq.n	80029dc <HAL_GPIO_Init+0x1e8>
 80029c0:	687b      	ldr	r3, [r7, #4]
 80029c2:	4a3e      	ldr	r2, [pc, #248]	@ (8002abc <HAL_GPIO_Init+0x2c8>)
 80029c4:	4293      	cmp	r3, r2
 80029c6:	d007      	beq.n	80029d8 <HAL_GPIO_Init+0x1e4>
 80029c8:	687b      	ldr	r3, [r7, #4]
 80029ca:	4a3d      	ldr	r2, [pc, #244]	@ (8002ac0 <HAL_GPIO_Init+0x2cc>)
 80029cc:	4293      	cmp	r3, r2
 80029ce:	d101      	bne.n	80029d4 <HAL_GPIO_Init+0x1e0>
 80029d0:	2303      	movs	r3, #3
 80029d2:	e006      	b.n	80029e2 <HAL_GPIO_Init+0x1ee>
 80029d4:	2304      	movs	r3, #4
 80029d6:	e004      	b.n	80029e2 <HAL_GPIO_Init+0x1ee>
 80029d8:	2302      	movs	r3, #2
 80029da:	e002      	b.n	80029e2 <HAL_GPIO_Init+0x1ee>
 80029dc:	2301      	movs	r3, #1
 80029de:	e000      	b.n	80029e2 <HAL_GPIO_Init+0x1ee>
 80029e0:	2300      	movs	r3, #0
 80029e2:	6a7a      	ldr	r2, [r7, #36]	@ 0x24
 80029e4:	f002 0203 	and.w	r2, r2, #3
 80029e8:	0092      	lsls	r2, r2, #2
 80029ea:	4093      	lsls	r3, r2
 80029ec:	68fa      	ldr	r2, [r7, #12]
 80029ee:	4313      	orrs	r3, r2
 80029f0:	60fb      	str	r3, [r7, #12]
 80029f2:	492f      	ldr	r1, [pc, #188]	@ (8002ab0 <HAL_GPIO_Init+0x2bc>)
 80029f4:	6a7b      	ldr	r3, [r7, #36]	@ 0x24
 80029f6:	089b      	lsrs	r3, r3, #2
 80029f8:	3302      	adds	r3, #2
 80029fa:	68fa      	ldr	r2, [r7, #12]
 80029fc:	f841 2023 	str.w	r2, [r1, r3, lsl #2]
 8002a00:	683b      	ldr	r3, [r7, #0]
 8002a02:	685b      	ldr	r3, [r3, #4]
 8002a04:	f403 1380 	and.w	r3, r3, #1048576	@ 0x100000
 8002a08:	2b00      	cmp	r3, #0
 8002a0a:	d006      	beq.n	8002a1a <HAL_GPIO_Init+0x226>
 8002a0c:	4b2d      	ldr	r3, [pc, #180]	@ (8002ac4 <HAL_GPIO_Init+0x2d0>)
 8002a0e:	689a      	ldr	r2, [r3, #8]
 8002a10:	492c      	ldr	r1, [pc, #176]	@ (8002ac4 <HAL_GPIO_Init+0x2d0>)
 8002a12:	69bb      	ldr	r3, [r7, #24]
 8002a14:	4313      	orrs	r3, r2
 8002a16:	608b      	str	r3, [r1, #8]
 8002a18:	e006      	b.n	8002a28 <HAL_GPIO_Init+0x234>
 8002a1a:	4b2a      	ldr	r3, [pc, #168]	@ (8002ac4 <HAL_GPIO_Init+0x2d0>)
 8002a1c:	689a      	ldr	r2, [r3, #8]
 8002a1e:	69bb      	ldr	r3, [r7, #24]
 8002a20:	43db      	mvns	r3, r3
 8002a22:	4928      	ldr	r1, [pc, #160]	@ (8002ac4 <HAL_GPIO_Init+0x2d0>)
 8002a24:	4013      	ands	r3, r2
 8002a26:	608b      	str	r3, [r1, #8]
 8002a28:	683b      	ldr	r3, [r7, #0]
 8002a2a:	685b      	ldr	r3, [r3, #4]
 8002a2c:	f403 1300 	and.w	r3, r3, #2097152	@ 0x200000
 8002a30:	2b00      	cmp	r3, #0
 8002a32:	d006      	beq.n	8002a42 <HAL_GPIO_Init+0x24e>
 8002a34:	4b23      	ldr	r3, [pc, #140]	@ (8002ac4 <HAL_GPIO_Init+0x2d0>)
 8002a36:	68da      	ldr	r2, [r3, #12]
 8002a38:	4922      	ldr	r1, [pc, #136]	@ (8002ac4 <HAL_GPIO_Init+0x2d0>)
 8002a3a:	69bb      	ldr	r3, [r7, #24]
 8002a3c:	4313      	orrs	r3, r2
 8002a3e:	60cb      	str	r3, [r1, #12]
 8002a40:	e006      	b.n	8002a50 <HAL_GPIO_Init+0x25c>
 8002a42:	4b20      	ldr	r3, [pc, #128]	@ (8002ac4 <HAL_GPIO_Init+0x2d0>)
 8002a44:	68da      	ldr	r2, [r3, #12]
 8002a46:	69bb      	ldr	r3, [r7, #24]
 8002a48:	43db      	mvns	r3, r3
 8002a4a:	491e      	ldr	r1, [pc, #120]	@ (8002ac4 <HAL_GPIO_Init+0x2d0>)
 8002a4c:	4013      	ands	r3, r2
 8002a4e:	60cb      	str	r3, [r1, #12]
 8002a50:	683b      	ldr	r3, [r7, #0]
 8002a52:	685b      	ldr	r3, [r3, #4]
 8002a54:	f403 3300 	and.w	r3, r3, #131072	@ 0x20000
 8002a58:	2b00      	cmp	r3, #0
 8002a5a:	d006      	beq.n	8002a6a <HAL_GPIO_Init+0x276>
 8002a5c:	4b19      	ldr	r3, [pc, #100]	@ (8002ac4 <HAL_GPIO_Init+0x2d0>)
 8002a5e:	685a      	ldr	r2, [r3, #4]
 8002a60:	4918      	ldr	r1, [pc, #96]	@ (8002ac4 <HAL_GPIO_Init+0x2d0>)
 8002a62:	69bb      	ldr	r3, [r7, #24]
 8002a64:	4313      	orrs	r3, r2
 8002a66:	604b      	str	r3, [r1, #4]
 8002a68:	e006      	b.n	8002a78 <HAL_GPIO_Init+0x284>
 8002a6a:	4b16      	ldr	r3, [pc, #88]	@ (8002ac4 <HAL_GPIO_Init+0x2d0>)
 8002a6c:	685a      	ldr	r2, [r3, #4]
 8002a6e:	69bb      	ldr	r3, [r7, #24]
 8002a70:	43db      	mvns	r3, r3
 8002a72:	4914      	ldr	r1, [pc, #80]	@ (8002ac4 <HAL_GPIO_Init+0x2d0>)
 8002a74:	4013      	ands	r3, r2
 8002a76:	604b      	str	r3, [r1, #4]
 8002a78:	683b      	ldr	r3, [r7, #0]
 8002a7a:	685b      	ldr	r3, [r3, #4]
 8002a7c:	f403 3380 	and.w	r3, r3, #65536	@ 0x10000
 8002a80:	2b00      	cmp	r3, #0
 8002a82:	d021      	beq.n	8002ac8 <HAL_GPIO_Init+0x2d4>
 8002a84:	4b0f      	ldr	r3, [pc, #60]	@ (8002ac4 <HAL_GPIO_Init+0x2d0>)
 8002a86:	681a      	ldr	r2, [r3, #0]
 8002a88:	490e      	ldr	r1, [pc, #56]	@ (8002ac4 <HAL_GPIO_Init+0x2d0>)
 8002a8a:	69bb      	ldr	r3, [r7, #24]
 8002a8c:	4313      	orrs	r3, r2
 8002a8e:	600b      	str	r3, [r1, #0]
 8002a90:	e021      	b.n	8002ad6 <HAL_GPIO_Init+0x2e2>
 8002a92:	bf00      	nop
 8002a94:	10320000 	.word	0x10320000
 8002a98:	10310000 	.word	0x10310000
 8002a9c:	10220000 	.word	0x10220000
 8002aa0:	10210000 	.word	0x10210000
 8002aa4:	10120000 	.word	0x10120000
 8002aa8:	10110000 	.word	0x10110000
 8002aac:	40021000 	.word	0x40021000
 8002ab0:	40010000 	.word	0x40010000
 8002ab4:	40010800 	.word	0x40010800
 8002ab8:	40010c00 	.word	0x40010c00
 8002abc:	40011000 	.word	0x40011000
 8002ac0:	40011400 	.word	0x40011400
 8002ac4:	40010400 	.word	0x40010400
 8002ac8:	4b0b      	ldr	r3, [pc, #44]	@ (8002af8 <HAL_GPIO_Init+0x304>)
 8002aca:	681a      	ldr	r2, [r3, #0]
 8002acc:	69bb      	ldr	r3, [r7, #24]
 8002ace:	43db      	mvns	r3, r3
 8002ad0:	4909      	ldr	r1, [pc, #36]	@ (8002af8 <HAL_GPIO_Init+0x304>)
 8002ad2:	4013      	ands	r3, r2
 8002ad4:	600b      	str	r3, [r1, #0]
 8002ad6:	6a7b      	ldr	r3, [r7, #36]	@ 0x24
 8002ad8:	3301      	adds	r3, #1
 8002ada:	627b      	str	r3, [r7, #36]	@ 0x24
 8002adc:	683b      	ldr	r3, [r7, #0]
 8002ade:	681a      	ldr	r2, [r3, #0]
 8002ae0:	6a7b      	ldr	r3, [r7, #36]	@ 0x24
 8002ae2:	fa22 f303 	lsr.w	r3, r2, r3
 8002ae6:	2b00      	cmp	r3, #0
 8002ae8:	f47f ae8e 	bne.w	8002808 <HAL_GPIO_Init+0x14>
 8002aec:	bf00      	nop
 8002aee:	bf00      	nop
 8002af0:	372c      	adds	r7, #44	@ 0x2c
 8002af2:	46bd      	mov	sp, r7
 8002af4:	bc80      	pop	{r7}
 8002af6:	4770      	bx	lr
 8002af8:	40010400 	.word	0x40010400

08002afc <HAL_GPIO_WritePin>:
 8002afc:	b480      	push	{r7}
 8002afe:	b083      	sub	sp, #12
 8002b00:	af00      	add	r7, sp, #0
 8002b02:	6078      	str	r0, [r7, #4]
 8002b04:	460b      	mov	r3, r1
 8002b06:	807b      	strh	r3, [r7, #2]
 8002b08:	4613      	mov	r3, r2
 8002b0a:	707b      	strb	r3, [r7, #1]
 8002b0c:	787b      	ldrb	r3, [r7, #1]
 8002b0e:	2b00      	cmp	r3, #0
 8002b10:	d003      	beq.n	8002b1a <HAL_GPIO_WritePin+0x1e>
 8002b12:	887a      	ldrh	r2, [r7, #2]
 8002b14:	687b      	ldr	r3, [r7, #4]
 8002b16:	611a      	str	r2, [r3, #16]
 8002b18:	e003      	b.n	8002b22 <HAL_GPIO_WritePin+0x26>
 8002b1a:	887b      	ldrh	r3, [r7, #2]
 8002b1c:	041a      	lsls	r2, r3, #16
 8002b1e:	687b      	ldr	r3, [r7, #4]
 8002b20:	611a      	str	r2, [r3, #16]
 8002b22:	bf00      	nop
 8002b24:	370c      	adds	r7, #12
 8002b26:	46bd      	mov	sp, r7
 8002b28:	bc80      	pop	{r7}
 8002b2a:	4770      	bx	lr

08002b2c <HAL_IWDG_Init>:
 8002b2c:	b580      	push	{r7, lr}
 8002b2e:	b084      	sub	sp, #16
 8002b30:	af00      	add	r7, sp, #0
 8002b32:	6078      	str	r0, [r7, #4]
 8002b34:	687b      	ldr	r3, [r7, #4]
 8002b36:	2b00      	cmp	r3, #0
 8002b38:	d101      	bne.n	8002b3e <HAL_IWDG_Init+0x12>
 8002b3a:	2301      	movs	r3, #1
 8002b3c:	e036      	b.n	8002bac <HAL_IWDG_Init+0x80>
 8002b3e:	687b      	ldr	r3, [r7, #4]
 8002b40:	681b      	ldr	r3, [r3, #0]
 8002b42:	f64c 42cc 	movw	r2, #52428	@ 0xcccc
 8002b46:	601a      	str	r2, [r3, #0]
 8002b48:	687b      	ldr	r3, [r7, #4]
 8002b4a:	681b      	ldr	r3, [r3, #0]
 8002b4c:	f245 5255 	movw	r2, #21845	@ 0x5555
 8002b50:	601a      	str	r2, [r3, #0]
 8002b52:	687b      	ldr	r3, [r7, #4]
 8002b54:	681b      	ldr	r3, [r3, #0]
 8002b56:	687a      	ldr	r2, [r7, #4]
 8002b58:	6852      	ldr	r2, [r2, #4]
 8002b5a:	605a      	str	r2, [r3, #4]
 8002b5c:	687b      	ldr	r3, [r7, #4]
 8002b5e:	681b      	ldr	r3, [r3, #0]
 8002b60:	687a      	ldr	r2, [r7, #4]
 8002b62:	6892      	ldr	r2, [r2, #8]
 8002b64:	609a      	str	r2, [r3, #8]
 8002b66:	f7fe fcdb 	bl	8001520 <HAL_GetTick>
 8002b6a:	60f8      	str	r0, [r7, #12]
 8002b6c:	e011      	b.n	8002b92 <HAL_IWDG_Init+0x66>
 8002b6e:	f7fe fcd7 	bl	8001520 <HAL_GetTick>
 8002b72:	4602      	mov	r2, r0
 8002b74:	68fb      	ldr	r3, [r7, #12]
 8002b76:	1ad3      	subs	r3, r2, r3
 8002b78:	f241 323c 	movw	r2, #4924	@ 0x133c
 8002b7c:	4293      	cmp	r3, r2
 8002b7e:	d908      	bls.n	8002b92 <HAL_IWDG_Init+0x66>
 8002b80:	687b      	ldr	r3, [r7, #4]
 8002b82:	681b      	ldr	r3, [r3, #0]
 8002b84:	68db      	ldr	r3, [r3, #12]
 8002b86:	f003 0303 	and.w	r3, r3, #3
 8002b8a:	2b00      	cmp	r3, #0
 8002b8c:	d001      	beq.n	8002b92 <HAL_IWDG_Init+0x66>
 8002b8e:	2303      	movs	r3, #3
 8002b90:	e00c      	b.n	8002bac <HAL_IWDG_Init+0x80>
 8002b92:	687b      	ldr	r3, [r7, #4]
 8002b94:	681b      	ldr	r3, [r3, #0]
 8002b96:	68db      	ldr	r3, [r3, #12]
 8002b98:	f003 0303 	and.w	r3, r3, #3
 8002b9c:	2b00      	cmp	r3, #0
 8002b9e:	d1e6      	bne.n	8002b6e <HAL_IWDG_Init+0x42>
 8002ba0:	687b      	ldr	r3, [r7, #4]
 8002ba2:	681b      	ldr	r3, [r3, #0]
 8002ba4:	f64a 22aa 	movw	r2, #43690	@ 0xaaaa
 8002ba8:	601a      	str	r2, [r3, #0]
 8002baa:	2300      	movs	r3, #0
 8002bac:	4618      	mov	r0, r3
 8002bae:	3710      	adds	r7, #16
 8002bb0:	46bd      	mov	sp, r7
 8002bb2:	bd80      	pop	{r7, pc}

08002bb4 <HAL_IWDG_Refresh>:
 8002bb4:	b480      	push	{r7}
 8002bb6:	b083      	sub	sp, #12
 8002bb8:	af00      	add	r7, sp, #0
 8002bba:	6078      	str	r0, [r7, #4]
 8002bbc:	687b      	ldr	r3, [r7, #4]
 8002bbe:	681b      	ldr	r3, [r3, #0]
 8002bc0:	f64a 22aa 	movw	r2, #43690	@ 0xaaaa
 8002bc4:	601a      	str	r2, [r3, #0]
 8002bc6:	2300      	movs	r3, #0
 8002bc8:	4618      	mov	r0, r3
 8002bca:	370c      	adds	r7, #12
 8002bcc:	46bd      	mov	sp, r7
 8002bce:	bc80      	pop	{r7}
 8002bd0:	4770      	bx	lr
	...

08002bd4 <HAL_RCC_OscConfig>:
 8002bd4:	b580      	push	{r7, lr}
 8002bd6:	b086      	sub	sp, #24
 8002bd8:	af00      	add	r7, sp, #0
 8002bda:	6078      	str	r0, [r7, #4]
 8002bdc:	687b      	ldr	r3, [r7, #4]
 8002bde:	2b00      	cmp	r3, #0
 8002be0:	d101      	bne.n	8002be6 <HAL_RCC_OscConfig+0x12>
 8002be2:	2301      	movs	r3, #1
 8002be4:	e272      	b.n	80030cc <HAL_RCC_OscConfig+0x4f8>
 8002be6:	687b      	ldr	r3, [r7, #4]
 8002be8:	681b      	ldr	r3, [r3, #0]
 8002bea:	f003 0301 	and.w	r3, r3, #1
 8002bee:	2b00      	cmp	r3, #0
 8002bf0:	f000 8087 	beq.w	8002d02 <HAL_RCC_OscConfig+0x12e>
 8002bf4:	4b92      	ldr	r3, [pc, #584]	@ (8002e40 <HAL_RCC_OscConfig+0x26c>)
 8002bf6:	685b      	ldr	r3, [r3, #4]
 8002bf8:	f003 030c 	and.w	r3, r3, #12
 8002bfc:	2b04      	cmp	r3, #4
 8002bfe:	d00c      	beq.n	8002c1a <HAL_RCC_OscConfig+0x46>
 8002c00:	4b8f      	ldr	r3, [pc, #572]	@ (8002e40 <HAL_RCC_OscConfig+0x26c>)
 8002c02:	685b      	ldr	r3, [r3, #4]
 8002c04:	f003 030c 	and.w	r3, r3, #12
 8002c08:	2b08      	cmp	r3, #8
 8002c0a:	d112      	bne.n	8002c32 <HAL_RCC_OscConfig+0x5e>
 8002c0c:	4b8c      	ldr	r3, [pc, #560]	@ (8002e40 <HAL_RCC_OscConfig+0x26c>)
 8002c0e:	685b      	ldr	r3, [r3, #4]
 8002c10:	f403 3380 	and.w	r3, r3, #65536	@ 0x10000
 8002c14:	f5b3 3f80 	cmp.w	r3, #65536	@ 0x10000
 8002c18:	d10b      	bne.n	8002c32 <HAL_RCC_OscConfig+0x5e>
 8002c1a:	4b89      	ldr	r3, [pc, #548]	@ (8002e40 <HAL_RCC_OscConfig+0x26c>)
 8002c1c:	681b      	ldr	r3, [r3, #0]
 8002c1e:	f403 3300 	and.w	r3, r3, #131072	@ 0x20000
 8002c22:	2b00      	cmp	r3, #0
 8002c24:	d06c      	beq.n	8002d00 <HAL_RCC_OscConfig+0x12c>
 8002c26:	687b      	ldr	r3, [r7, #4]
 8002c28:	685b      	ldr	r3, [r3, #4]
 8002c2a:	2b00      	cmp	r3, #0
 8002c2c:	d168      	bne.n	8002d00 <HAL_RCC_OscConfig+0x12c>
 8002c2e:	2301      	movs	r3, #1
 8002c30:	e24c      	b.n	80030cc <HAL_RCC_OscConfig+0x4f8>
 8002c32:	687b      	ldr	r3, [r7, #4]
 8002c34:	685b      	ldr	r3, [r3, #4]
 8002c36:	f5b3 3f80 	cmp.w	r3, #65536	@ 0x10000
 8002c3a:	d106      	bne.n	8002c4a <HAL_RCC_OscConfig+0x76>
 8002c3c:	4b80      	ldr	r3, [pc, #512]	@ (8002e40 <HAL_RCC_OscConfig+0x26c>)
 8002c3e:	681b      	ldr	r3, [r3, #0]
 8002c40:	4a7f      	ldr	r2, [pc, #508]	@ (8002e40 <HAL_RCC_OscConfig+0x26c>)
 8002c42:	f443 3380 	orr.w	r3, r3, #65536	@ 0x10000
 8002c46:	6013      	str	r3, [r2, #0]
 8002c48:	e02e      	b.n	8002ca8 <HAL_RCC_OscConfig+0xd4>
 8002c4a:	687b      	ldr	r3, [r7, #4]
 8002c4c:	685b      	ldr	r3, [r3, #4]
 8002c4e:	2b00      	cmp	r3, #0
 8002c50:	d10c      	bne.n	8002c6c <HAL_RCC_OscConfig+0x98>
 8002c52:	4b7b      	ldr	r3, [pc, #492]	@ (8002e40 <HAL_RCC_OscConfig+0x26c>)
 8002c54:	681b      	ldr	r3, [r3, #0]
 8002c56:	4a7a      	ldr	r2, [pc, #488]	@ (8002e40 <HAL_RCC_OscConfig+0x26c>)
 8002c58:	f423 3380 	bic.w	r3, r3, #65536	@ 0x10000
 8002c5c:	6013      	str	r3, [r2, #0]
 8002c5e:	4b78      	ldr	r3, [pc, #480]	@ (8002e40 <HAL_RCC_OscConfig+0x26c>)
 8002c60:	681b      	ldr	r3, [r3, #0]
 8002c62:	4a77      	ldr	r2, [pc, #476]	@ (8002e40 <HAL_RCC_OscConfig+0x26c>)
 8002c64:	f423 2380 	bic.w	r3, r3, #262144	@ 0x40000
 8002c68:	6013      	str	r3, [r2, #0]
 8002c6a:	e01d      	b.n	8002ca8 <HAL_RCC_OscConfig+0xd4>
 8002c6c:	687b      	ldr	r3, [r7, #4]
 8002c6e:	685b      	ldr	r3, [r3, #4]
 8002c70:	f5b3 2fa0 	cmp.w	r3, #327680	@ 0x50000
 8002c74:	d10c      	bne.n	8002c90 <HAL_RCC_OscConfig+0xbc>
 8002c76:	4b72      	ldr	r3, [pc, #456]	@ (8002e40 <HAL_RCC_OscConfig+0x26c>)
 8002c78:	681b      	ldr	r3, [r3, #0]
 8002c7a:	4a71      	ldr	r2, [pc, #452]	@ (8002e40 <HAL_RCC_OscConfig+0x26c>)
 8002c7c:	f443 2380 	orr.w	r3, r3, #262144	@ 0x40000
 8002c80:	6013      	str	r3, [r2, #0]
 8002c82:	4b6f      	ldr	r3, [pc, #444]	@ (8002e40 <HAL_RCC_OscConfig+0x26c>)
 8002c84:	681b      	ldr	r3, [r3, #0]
 8002c86:	4a6e      	ldr	r2, [pc, #440]	@ (8002e40 <HAL_RCC_OscConfig+0x26c>)
 8002c88:	f443 3380 	orr.w	r3, r3, #65536	@ 0x10000
 8002c8c:	6013      	str	r3, [r2, #0]
 8002c8e:	e00b      	b.n	8002ca8 <HAL_RCC_OscConfig+0xd4>
 8002c90:	4b6b      	ldr	r3, [pc, #428]	@ (8002e40 <HAL_RCC_OscConfig+0x26c>)
 8002c92:	681b      	ldr	r3, [r3, #0]
 8002c94:	4a6a      	ldr	r2, [pc, #424]	@ (8002e40 <HAL_RCC_OscConfig+0x26c>)
 8002c96:	f423 3380 	bic.w	r3, r3, #65536	@ 0x10000
 8002c9a:	6013      	str	r3, [r2, #0]
 8002c9c:	4b68      	ldr	r3, [pc, #416]	@ (8002e40 <HAL_RCC_OscConfig+0x26c>)
 8002c9e:	681b      	ldr	r3, [r3, #0]
 8002ca0:	4a67      	ldr	r2, [pc, #412]	@ (8002e40 <HAL_RCC_OscConfig+0x26c>)
 8002ca2:	f423 2380 	bic.w	r3, r3, #262144	@ 0x40000
 8002ca6:	6013      	str	r3, [r2, #0]
 8002ca8:	687b      	ldr	r3, [r7, #4]
 8002caa:	685b      	ldr	r3, [r3, #4]
 8002cac:	2b00      	cmp	r3, #0
 8002cae:	d013      	beq.n	8002cd8 <HAL_RCC_OscConfig+0x104>
 8002cb0:	f7fe fc36 	bl	8001520 <HAL_GetTick>
 8002cb4:	6138      	str	r0, [r7, #16]
 8002cb6:	e008      	b.n	8002cca <HAL_RCC_OscConfig+0xf6>
 8002cb8:	f7fe fc32 	bl	8001520 <HAL_GetTick>
 8002cbc:	4602      	mov	r2, r0
 8002cbe:	693b      	ldr	r3, [r7, #16]
 8002cc0:	1ad3      	subs	r3, r2, r3
 8002cc2:	2b64      	cmp	r3, #100	@ 0x64
 8002cc4:	d901      	bls.n	8002cca <HAL_RCC_OscConfig+0xf6>
 8002cc6:	2303      	movs	r3, #3
 8002cc8:	e200      	b.n	80030cc <HAL_RCC_OscConfig+0x4f8>
 8002cca:	4b5d      	ldr	r3, [pc, #372]	@ (8002e40 <HAL_RCC_OscConfig+0x26c>)
 8002ccc:	681b      	ldr	r3, [r3, #0]
 8002cce:	f403 3300 	and.w	r3, r3, #131072	@ 0x20000
 8002cd2:	2b00      	cmp	r3, #0
 8002cd4:	d0f0      	beq.n	8002cb8 <HAL_RCC_OscConfig+0xe4>
 8002cd6:	e014      	b.n	8002d02 <HAL_RCC_OscConfig+0x12e>
 8002cd8:	f7fe fc22 	bl	8001520 <HAL_GetTick>
 8002cdc:	6138      	str	r0, [r7, #16]
 8002cde:	e008      	b.n	8002cf2 <HAL_RCC_OscConfig+0x11e>
 8002ce0:	f7fe fc1e 	bl	8001520 <HAL_GetTick>
 8002ce4:	4602      	mov	r2, r0
 8002ce6:	693b      	ldr	r3, [r7, #16]
 8002ce8:	1ad3      	subs	r3, r2, r3
 8002cea:	2b64      	cmp	r3, #100	@ 0x64
 8002cec:	d901      	bls.n	8002cf2 <HAL_RCC_OscConfig+0x11e>
 8002cee:	2303      	movs	r3, #3
 8002cf0:	e1ec      	b.n	80030cc <HAL_RCC_OscConfig+0x4f8>
 8002cf2:	4b53      	ldr	r3, [pc, #332]	@ (8002e40 <HAL_RCC_OscConfig+0x26c>)
 8002cf4:	681b      	ldr	r3, [r3, #0]
 8002cf6:	f403 3300 	and.w	r3, r3, #131072	@ 0x20000
 8002cfa:	2b00      	cmp	r3, #0
 8002cfc:	d1f0      	bne.n	8002ce0 <HAL_RCC_OscConfig+0x10c>
 8002cfe:	e000      	b.n	8002d02 <HAL_RCC_OscConfig+0x12e>
 8002d00:	bf00      	nop
 8002d02:	687b      	ldr	r3, [r7, #4]
 8002d04:	681b      	ldr	r3, [r3, #0]
 8002d06:	f003 0302 	and.w	r3, r3, #2
 8002d0a:	2b00      	cmp	r3, #0
 8002d0c:	d063      	beq.n	8002dd6 <HAL_RCC_OscConfig+0x202>
 8002d0e:	4b4c      	ldr	r3, [pc, #304]	@ (8002e40 <HAL_RCC_OscConfig+0x26c>)
 8002d10:	685b      	ldr	r3, [r3, #4]
 8002d12:	f003 030c 	and.w	r3, r3, #12
 8002d16:	2b00      	cmp	r3, #0
 8002d18:	d00b      	beq.n	8002d32 <HAL_RCC_OscConfig+0x15e>
 8002d1a:	4b49      	ldr	r3, [pc, #292]	@ (8002e40 <HAL_RCC_OscConfig+0x26c>)
 8002d1c:	685b      	ldr	r3, [r3, #4]
 8002d1e:	f003 030c 	and.w	r3, r3, #12
 8002d22:	2b08      	cmp	r3, #8
 8002d24:	d11c      	bne.n	8002d60 <HAL_RCC_OscConfig+0x18c>
 8002d26:	4b46      	ldr	r3, [pc, #280]	@ (8002e40 <HAL_RCC_OscConfig+0x26c>)
 8002d28:	685b      	ldr	r3, [r3, #4]
 8002d2a:	f403 3380 	and.w	r3, r3, #65536	@ 0x10000
 8002d2e:	2b00      	cmp	r3, #0
 8002d30:	d116      	bne.n	8002d60 <HAL_RCC_OscConfig+0x18c>
 8002d32:	4b43      	ldr	r3, [pc, #268]	@ (8002e40 <HAL_RCC_OscConfig+0x26c>)
 8002d34:	681b      	ldr	r3, [r3, #0]
 8002d36:	f003 0302 	and.w	r3, r3, #2
 8002d3a:	2b00      	cmp	r3, #0
 8002d3c:	d005      	beq.n	8002d4a <HAL_RCC_OscConfig+0x176>
 8002d3e:	687b      	ldr	r3, [r7, #4]
 8002d40:	691b      	ldr	r3, [r3, #16]
 8002d42:	2b01      	cmp	r3, #1
 8002d44:	d001      	beq.n	8002d4a <HAL_RCC_OscConfig+0x176>
 8002d46:	2301      	movs	r3, #1
 8002d48:	e1c0      	b.n	80030cc <HAL_RCC_OscConfig+0x4f8>
 8002d4a:	4b3d      	ldr	r3, [pc, #244]	@ (8002e40 <HAL_RCC_OscConfig+0x26c>)
 8002d4c:	681b      	ldr	r3, [r3, #0]
 8002d4e:	f023 02f8 	bic.w	r2, r3, #248	@ 0xf8
 8002d52:	687b      	ldr	r3, [r7, #4]
 8002d54:	695b      	ldr	r3, [r3, #20]
 8002d56:	00db      	lsls	r3, r3, #3
 8002d58:	4939      	ldr	r1, [pc, #228]	@ (8002e40 <HAL_RCC_OscConfig+0x26c>)
 8002d5a:	4313      	orrs	r3, r2
 8002d5c:	600b      	str	r3, [r1, #0]
 8002d5e:	e03a      	b.n	8002dd6 <HAL_RCC_OscConfig+0x202>
 8002d60:	687b      	ldr	r3, [r7, #4]
 8002d62:	691b      	ldr	r3, [r3, #16]
 8002d64:	2b00      	cmp	r3, #0
 8002d66:	d020      	beq.n	8002daa <HAL_RCC_OscConfig+0x1d6>
 8002d68:	4b36      	ldr	r3, [pc, #216]	@ (8002e44 <HAL_RCC_OscConfig+0x270>)
 8002d6a:	2201      	movs	r2, #1
 8002d6c:	601a      	str	r2, [r3, #0]
 8002d6e:	f7fe fbd7 	bl	8001520 <HAL_GetTick>
 8002d72:	6138      	str	r0, [r7, #16]
 8002d74:	e008      	b.n	8002d88 <HAL_RCC_OscConfig+0x1b4>
 8002d76:	f7fe fbd3 	bl	8001520 <HAL_GetTick>
 8002d7a:	4602      	mov	r2, r0
 8002d7c:	693b      	ldr	r3, [r7, #16]
 8002d7e:	1ad3      	subs	r3, r2, r3
 8002d80:	2b02      	cmp	r3, #2
 8002d82:	d901      	bls.n	8002d88 <HAL_RCC_OscConfig+0x1b4>
 8002d84:	2303      	movs	r3, #3
 8002d86:	e1a1      	b.n	80030cc <HAL_RCC_OscConfig+0x4f8>
 8002d88:	4b2d      	ldr	r3, [pc, #180]	@ (8002e40 <HAL_RCC_OscConfig+0x26c>)
 8002d8a:	681b      	ldr	r3, [r3, #0]
 8002d8c:	f003 0302 	and.w	r3, r3, #2
 8002d90:	2b00      	cmp	r3, #0
 8002d92:	d0f0      	beq.n	8002d76 <HAL_RCC_OscConfig+0x1a2>
 8002d94:	4b2a      	ldr	r3, [pc, #168]	@ (8002e40 <HAL_RCC_OscConfig+0x26c>)
 8002d96:	681b      	ldr	r3, [r3, #0]
 8002d98:	f023 02f8 	bic.w	r2, r3, #248	@ 0xf8
 8002d9c:	687b      	ldr	r3, [r7, #4]
 8002d9e:	695b      	ldr	r3, [r3, #20]
 8002da0:	00db      	lsls	r3, r3, #3
 8002da2:	4927      	ldr	r1, [pc, #156]	@ (8002e40 <HAL_RCC_OscConfig+0x26c>)
 8002da4:	4313      	orrs	r3, r2
 8002da6:	600b      	str	r3, [r1, #0]
 8002da8:	e015      	b.n	8002dd6 <HAL_RCC_OscConfig+0x202>
 8002daa:	4b26      	ldr	r3, [pc, #152]	@ (8002e44 <HAL_RCC_OscConfig+0x270>)
 8002dac:	2200      	movs	r2, #0
 8002dae:	601a      	str	r2, [r3, #0]
 8002db0:	f7fe fbb6 	bl	8001520 <HAL_GetTick>
 8002db4:	6138      	str	r0, [r7, #16]
 8002db6:	e008      	b.n	8002dca <HAL_RCC_OscConfig+0x1f6>
 8002db8:	f7fe fbb2 	bl	8001520 <HAL_GetTick>
 8002dbc:	4602      	mov	r2, r0
 8002dbe:	693b      	ldr	r3, [r7, #16]
 8002dc0:	1ad3      	subs	r3, r2, r3
 8002dc2:	2b02      	cmp	r3, #2
 8002dc4:	d901      	bls.n	8002dca <HAL_RCC_OscConfig+0x1f6>
 8002dc6:	2303      	movs	r3, #3
 8002dc8:	e180      	b.n	80030cc <HAL_RCC_OscConfig+0x4f8>
 8002dca:	4b1d      	ldr	r3, [pc, #116]	@ (8002e40 <HAL_RCC_OscConfig+0x26c>)
 8002dcc:	681b      	ldr	r3, [r3, #0]
 8002dce:	f003 0302 	and.w	r3, r3, #2
 8002dd2:	2b00      	cmp	r3, #0
 8002dd4:	d1f0      	bne.n	8002db8 <HAL_RCC_OscConfig+0x1e4>
 8002dd6:	687b      	ldr	r3, [r7, #4]
 8002dd8:	681b      	ldr	r3, [r3, #0]
 8002dda:	f003 0308 	and.w	r3, r3, #8
 8002dde:	2b00      	cmp	r3, #0
 8002de0:	d03a      	beq.n	8002e58 <HAL_RCC_OscConfig+0x284>
 8002de2:	687b      	ldr	r3, [r7, #4]
 8002de4:	699b      	ldr	r3, [r3, #24]
 8002de6:	2b00      	cmp	r3, #0
 8002de8:	d019      	beq.n	8002e1e <HAL_RCC_OscConfig+0x24a>
 8002dea:	4b17      	ldr	r3, [pc, #92]	@ (8002e48 <HAL_RCC_OscConfig+0x274>)
 8002dec:	2201      	movs	r2, #1
 8002dee:	601a      	str	r2, [r3, #0]
 8002df0:	f7fe fb96 	bl	8001520 <HAL_GetTick>
 8002df4:	6138      	str	r0, [r7, #16]
 8002df6:	e008      	b.n	8002e0a <HAL_RCC_OscConfig+0x236>
 8002df8:	f7fe fb92 	bl	8001520 <HAL_GetTick>
 8002dfc:	4602      	mov	r2, r0
 8002dfe:	693b      	ldr	r3, [r7, #16]
 8002e00:	1ad3      	subs	r3, r2, r3
 8002e02:	2b02      	cmp	r3, #2
 8002e04:	d901      	bls.n	8002e0a <HAL_RCC_OscConfig+0x236>
 8002e06:	2303      	movs	r3, #3
 8002e08:	e160      	b.n	80030cc <HAL_RCC_OscConfig+0x4f8>
 8002e0a:	4b0d      	ldr	r3, [pc, #52]	@ (8002e40 <HAL_RCC_OscConfig+0x26c>)
 8002e0c:	6a5b      	ldr	r3, [r3, #36]	@ 0x24
 8002e0e:	f003 0302 	and.w	r3, r3, #2
 8002e12:	2b00      	cmp	r3, #0
 8002e14:	d0f0      	beq.n	8002df8 <HAL_RCC_OscConfig+0x224>
 8002e16:	2001      	movs	r0, #1
 8002e18:	f000 fad0 	bl	80033bc <RCC_Delay>
 8002e1c:	e01c      	b.n	8002e58 <HAL_RCC_OscConfig+0x284>
 8002e1e:	4b0a      	ldr	r3, [pc, #40]	@ (8002e48 <HAL_RCC_OscConfig+0x274>)
 8002e20:	2200      	movs	r2, #0
 8002e22:	601a      	str	r2, [r3, #0]
 8002e24:	f7fe fb7c 	bl	8001520 <HAL_GetTick>
 8002e28:	6138      	str	r0, [r7, #16]
 8002e2a:	e00f      	b.n	8002e4c <HAL_RCC_OscConfig+0x278>
 8002e2c:	f7fe fb78 	bl	8001520 <HAL_GetTick>
 8002e30:	4602      	mov	r2, r0
 8002e32:	693b      	ldr	r3, [r7, #16]
 8002e34:	1ad3      	subs	r3, r2, r3
 8002e36:	2b02      	cmp	r3, #2
 8002e38:	d908      	bls.n	8002e4c <HAL_RCC_OscConfig+0x278>
 8002e3a:	2303      	movs	r3, #3
 8002e3c:	e146      	b.n	80030cc <HAL_RCC_OscConfig+0x4f8>
 8002e3e:	bf00      	nop
 8002e40:	40021000 	.word	0x40021000
 8002e44:	42420000 	.word	0x42420000
 8002e48:	42420480 	.word	0x42420480
 8002e4c:	4b92      	ldr	r3, [pc, #584]	@ (8003098 <HAL_RCC_OscConfig+0x4c4>)
 8002e4e:	6a5b      	ldr	r3, [r3, #36]	@ 0x24
 8002e50:	f003 0302 	and.w	r3, r3, #2
 8002e54:	2b00      	cmp	r3, #0
 8002e56:	d1e9      	bne.n	8002e2c <HAL_RCC_OscConfig+0x258>
 8002e58:	687b      	ldr	r3, [r7, #4]
 8002e5a:	681b      	ldr	r3, [r3, #0]
 8002e5c:	f003 0304 	and.w	r3, r3, #4
 8002e60:	2b00      	cmp	r3, #0
 8002e62:	f000 80a6 	beq.w	8002fb2 <HAL_RCC_OscConfig+0x3de>
 8002e66:	2300      	movs	r3, #0
 8002e68:	75fb      	strb	r3, [r7, #23]
 8002e6a:	4b8b      	ldr	r3, [pc, #556]	@ (8003098 <HAL_RCC_OscConfig+0x4c4>)
 8002e6c:	69db      	ldr	r3, [r3, #28]
 8002e6e:	f003 5380 	and.w	r3, r3, #268435456	@ 0x10000000
 8002e72:	2b00      	cmp	r3, #0
 8002e74:	d10d      	bne.n	8002e92 <HAL_RCC_OscConfig+0x2be>
 8002e76:	4b88      	ldr	r3, [pc, #544]	@ (8003098 <HAL_RCC_OscConfig+0x4c4>)
 8002e78:	69db      	ldr	r3, [r3, #28]
 8002e7a:	4a87      	ldr	r2, [pc, #540]	@ (8003098 <HAL_RCC_OscConfig+0x4c4>)
 8002e7c:	f043 5380 	orr.w	r3, r3, #268435456	@ 0x10000000
 8002e80:	61d3      	str	r3, [r2, #28]
 8002e82:	4b85      	ldr	r3, [pc, #532]	@ (8003098 <HAL_RCC_OscConfig+0x4c4>)
 8002e84:	69db      	ldr	r3, [r3, #28]
 8002e86:	f003 5380 	and.w	r3, r3, #268435456	@ 0x10000000
 8002e8a:	60bb      	str	r3, [r7, #8]
 8002e8c:	68bb      	ldr	r3, [r7, #8]
 8002e8e:	2301      	movs	r3, #1
 8002e90:	75fb      	strb	r3, [r7, #23]
 8002e92:	4b82      	ldr	r3, [pc, #520]	@ (800309c <HAL_RCC_OscConfig+0x4c8>)
 8002e94:	681b      	ldr	r3, [r3, #0]
 8002e96:	f403 7380 	and.w	r3, r3, #256	@ 0x100
 8002e9a:	2b00      	cmp	r3, #0
 8002e9c:	d118      	bne.n	8002ed0 <HAL_RCC_OscConfig+0x2fc>
 8002e9e:	4b7f      	ldr	r3, [pc, #508]	@ (800309c <HAL_RCC_OscConfig+0x4c8>)
 8002ea0:	681b      	ldr	r3, [r3, #0]
 8002ea2:	4a7e      	ldr	r2, [pc, #504]	@ (800309c <HAL_RCC_OscConfig+0x4c8>)
 8002ea4:	f443 7380 	orr.w	r3, r3, #256	@ 0x100
 8002ea8:	6013      	str	r3, [r2, #0]
 8002eaa:	f7fe fb39 	bl	8001520 <HAL_GetTick>
 8002eae:	6138      	str	r0, [r7, #16]
 8002eb0:	e008      	b.n	8002ec4 <HAL_RCC_OscConfig+0x2f0>
 8002eb2:	f7fe fb35 	bl	8001520 <HAL_GetTick>
 8002eb6:	4602      	mov	r2, r0
 8002eb8:	693b      	ldr	r3, [r7, #16]
 8002eba:	1ad3      	subs	r3, r2, r3
 8002ebc:	2b64      	cmp	r3, #100	@ 0x64
 8002ebe:	d901      	bls.n	8002ec4 <HAL_RCC_OscConfig+0x2f0>
 8002ec0:	2303      	movs	r3, #3
 8002ec2:	e103      	b.n	80030cc <HAL_RCC_OscConfig+0x4f8>
 8002ec4:	4b75      	ldr	r3, [pc, #468]	@ (800309c <HAL_RCC_OscConfig+0x4c8>)
 8002ec6:	681b      	ldr	r3, [r3, #0]
 8002ec8:	f403 7380 	and.w	r3, r3, #256	@ 0x100
 8002ecc:	2b00      	cmp	r3, #0
 8002ece:	d0f0      	beq.n	8002eb2 <HAL_RCC_OscConfig+0x2de>
 8002ed0:	687b      	ldr	r3, [r7, #4]
 8002ed2:	68db      	ldr	r3, [r3, #12]
 8002ed4:	2b01      	cmp	r3, #1
 8002ed6:	d106      	bne.n	8002ee6 <HAL_RCC_OscConfig+0x312>
 8002ed8:	4b6f      	ldr	r3, [pc, #444]	@ (8003098 <HAL_RCC_OscConfig+0x4c4>)
 8002eda:	6a1b      	ldr	r3, [r3, #32]
 8002edc:	4a6e      	ldr	r2, [pc, #440]	@ (8003098 <HAL_RCC_OscConfig+0x4c4>)
 8002ede:	f043 0301 	orr.w	r3, r3, #1
 8002ee2:	6213      	str	r3, [r2, #32]
 8002ee4:	e02d      	b.n	8002f42 <HAL_RCC_OscConfig+0x36e>
 8002ee6:	687b      	ldr	r3, [r7, #4]
 8002ee8:	68db      	ldr	r3, [r3, #12]
 8002eea:	2b00      	cmp	r3, #0
 8002eec:	d10c      	bne.n	8002f08 <HAL_RCC_OscConfig+0x334>
 8002eee:	4b6a      	ldr	r3, [pc, #424]	@ (8003098 <HAL_RCC_OscConfig+0x4c4>)
 8002ef0:	6a1b      	ldr	r3, [r3, #32]
 8002ef2:	4a69      	ldr	r2, [pc, #420]	@ (8003098 <HAL_RCC_OscConfig+0x4c4>)
 8002ef4:	f023 0301 	bic.w	r3, r3, #1
 8002ef8:	6213      	str	r3, [r2, #32]
 8002efa:	4b67      	ldr	r3, [pc, #412]	@ (8003098 <HAL_RCC_OscConfig+0x4c4>)
 8002efc:	6a1b      	ldr	r3, [r3, #32]
 8002efe:	4a66      	ldr	r2, [pc, #408]	@ (8003098 <HAL_RCC_OscConfig+0x4c4>)
 8002f00:	f023 0304 	bic.w	r3, r3, #4
 8002f04:	6213      	str	r3, [r2, #32]
 8002f06:	e01c      	b.n	8002f42 <HAL_RCC_OscConfig+0x36e>
 8002f08:	687b      	ldr	r3, [r7, #4]
 8002f0a:	68db      	ldr	r3, [r3, #12]
 8002f0c:	2b05      	cmp	r3, #5
 8002f0e:	d10c      	bne.n	8002f2a <HAL_RCC_OscConfig+0x356>
 8002f10:	4b61      	ldr	r3, [pc, #388]	@ (8003098 <HAL_RCC_OscConfig+0x4c4>)
 8002f12:	6a1b      	ldr	r3, [r3, #32]
 8002f14:	4a60      	ldr	r2, [pc, #384]	@ (8003098 <HAL_RCC_OscConfig+0x4c4>)
 8002f16:	f043 0304 	orr.w	r3, r3, #4
 8002f1a:	6213      	str	r3, [r2, #32]
 8002f1c:	4b5e      	ldr	r3, [pc, #376]	@ (8003098 <HAL_RCC_OscConfig+0x4c4>)
 8002f1e:	6a1b      	ldr	r3, [r3, #32]
 8002f20:	4a5d      	ldr	r2, [pc, #372]	@ (8003098 <HAL_RCC_OscConfig+0x4c4>)
 8002f22:	f043 0301 	orr.w	r3, r3, #1
 8002f26:	6213      	str	r3, [r2, #32]
 8002f28:	e00b      	b.n	8002f42 <HAL_RCC_OscConfig+0x36e>
 8002f2a:	4b5b      	ldr	r3, [pc, #364]	@ (8003098 <HAL_RCC_OscConfig+0x4c4>)
 8002f2c:	6a1b      	ldr	r3, [r3, #32]
 8002f2e:	4a5a      	ldr	r2, [pc, #360]	@ (8003098 <HAL_RCC_OscConfig+0x4c4>)
 8002f30:	f023 0301 	bic.w	r3, r3, #1
 8002f34:	6213      	str	r3, [r2, #32]
 8002f36:	4b58      	ldr	r3, [pc, #352]	@ (8003098 <HAL_RCC_OscConfig+0x4c4>)
 8002f38:	6a1b      	ldr	r3, [r3, #32]
 8002f3a:	4a57      	ldr	r2, [pc, #348]	@ (8003098 <HAL_RCC_OscConfig+0x4c4>)
 8002f3c:	f023 0304 	bic.w	r3, r3, #4
 8002f40:	6213      	str	r3, [r2, #32]
 8002f42:	687b      	ldr	r3, [r7, #4]
 8002f44:	68db      	ldr	r3, [r3, #12]
 8002f46:	2b00      	cmp	r3, #0
 8002f48:	d015      	beq.n	8002f76 <HAL_RCC_OscConfig+0x3a2>
 8002f4a:	f7fe fae9 	bl	8001520 <HAL_GetTick>
 8002f4e:	6138      	str	r0, [r7, #16]
 8002f50:	e00a      	b.n	8002f68 <HAL_RCC_OscConfig+0x394>
 8002f52:	f7fe fae5 	bl	8001520 <HAL_GetTick>
 8002f56:	4602      	mov	r2, r0
 8002f58:	693b      	ldr	r3, [r7, #16]
 8002f5a:	1ad3      	subs	r3, r2, r3
 8002f5c:	f241 3288 	movw	r2, #5000	@ 0x1388
 8002f60:	4293      	cmp	r3, r2
 8002f62:	d901      	bls.n	8002f68 <HAL_RCC_OscConfig+0x394>
 8002f64:	2303      	movs	r3, #3
 8002f66:	e0b1      	b.n	80030cc <HAL_RCC_OscConfig+0x4f8>
 8002f68:	4b4b      	ldr	r3, [pc, #300]	@ (8003098 <HAL_RCC_OscConfig+0x4c4>)
 8002f6a:	6a1b      	ldr	r3, [r3, #32]
 8002f6c:	f003 0302 	and.w	r3, r3, #2
 8002f70:	2b00      	cmp	r3, #0
 8002f72:	d0ee      	beq.n	8002f52 <HAL_RCC_OscConfig+0x37e>
 8002f74:	e014      	b.n	8002fa0 <HAL_RCC_OscConfig+0x3cc>
 8002f76:	f7fe fad3 	bl	8001520 <HAL_GetTick>
 8002f7a:	6138      	str	r0, [r7, #16]
 8002f7c:	e00a      	b.n	8002f94 <HAL_RCC_OscConfig+0x3c0>
 8002f7e:	f7fe facf 	bl	8001520 <HAL_GetTick>
 8002f82:	4602      	mov	r2, r0
 8002f84:	693b      	ldr	r3, [r7, #16]
 8002f86:	1ad3      	subs	r3, r2, r3
 8002f88:	f241 3288 	movw	r2, #5000	@ 0x1388
 8002f8c:	4293      	cmp	r3, r2
 8002f8e:	d901      	bls.n	8002f94 <HAL_RCC_OscConfig+0x3c0>
 8002f90:	2303      	movs	r3, #3
 8002f92:	e09b      	b.n	80030cc <HAL_RCC_OscConfig+0x4f8>
 8002f94:	4b40      	ldr	r3, [pc, #256]	@ (8003098 <HAL_RCC_OscConfig+0x4c4>)
 8002f96:	6a1b      	ldr	r3, [r3, #32]
 8002f98:	f003 0302 	and.w	r3, r3, #2
 8002f9c:	2b00      	cmp	r3, #0
 8002f9e:	d1ee      	bne.n	8002f7e <HAL_RCC_OscConfig+0x3aa>
 8002fa0:	7dfb      	ldrb	r3, [r7, #23]
 8002fa2:	2b01      	cmp	r3, #1
 8002fa4:	d105      	bne.n	8002fb2 <HAL_RCC_OscConfig+0x3de>
 8002fa6:	4b3c      	ldr	r3, [pc, #240]	@ (8003098 <HAL_RCC_OscConfig+0x4c4>)
 8002fa8:	69db      	ldr	r3, [r3, #28]
 8002faa:	4a3b      	ldr	r2, [pc, #236]	@ (8003098 <HAL_RCC_OscConfig+0x4c4>)
 8002fac:	f023 5380 	bic.w	r3, r3, #268435456	@ 0x10000000
 8002fb0:	61d3      	str	r3, [r2, #28]
 8002fb2:	687b      	ldr	r3, [r7, #4]
 8002fb4:	69db      	ldr	r3, [r3, #28]
 8002fb6:	2b00      	cmp	r3, #0
 8002fb8:	f000 8087 	beq.w	80030ca <HAL_RCC_OscConfig+0x4f6>
 8002fbc:	4b36      	ldr	r3, [pc, #216]	@ (8003098 <HAL_RCC_OscConfig+0x4c4>)
 8002fbe:	685b      	ldr	r3, [r3, #4]
 8002fc0:	f003 030c 	and.w	r3, r3, #12
 8002fc4:	2b08      	cmp	r3, #8
 8002fc6:	d061      	beq.n	800308c <HAL_RCC_OscConfig+0x4b8>
 8002fc8:	687b      	ldr	r3, [r7, #4]
 8002fca:	69db      	ldr	r3, [r3, #28]
 8002fcc:	2b02      	cmp	r3, #2
 8002fce:	d146      	bne.n	800305e <HAL_RCC_OscConfig+0x48a>
 8002fd0:	4b33      	ldr	r3, [pc, #204]	@ (80030a0 <HAL_RCC_OscConfig+0x4cc>)
 8002fd2:	2200      	movs	r2, #0
 8002fd4:	601a      	str	r2, [r3, #0]
 8002fd6:	f7fe faa3 	bl	8001520 <HAL_GetTick>
 8002fda:	6138      	str	r0, [r7, #16]
 8002fdc:	e008      	b.n	8002ff0 <HAL_RCC_OscConfig+0x41c>
 8002fde:	f7fe fa9f 	bl	8001520 <HAL_GetTick>
 8002fe2:	4602      	mov	r2, r0
 8002fe4:	693b      	ldr	r3, [r7, #16]
 8002fe6:	1ad3      	subs	r3, r2, r3
 8002fe8:	2b02      	cmp	r3, #2
 8002fea:	d901      	bls.n	8002ff0 <HAL_RCC_OscConfig+0x41c>
 8002fec:	2303      	movs	r3, #3
 8002fee:	e06d      	b.n	80030cc <HAL_RCC_OscConfig+0x4f8>
 8002ff0:	4b29      	ldr	r3, [pc, #164]	@ (8003098 <HAL_RCC_OscConfig+0x4c4>)
 8002ff2:	681b      	ldr	r3, [r3, #0]
 8002ff4:	f003 7300 	and.w	r3, r3, #33554432	@ 0x2000000
 8002ff8:	2b00      	cmp	r3, #0
 8002ffa:	d1f0      	bne.n	8002fde <HAL_RCC_OscConfig+0x40a>
 8002ffc:	687b      	ldr	r3, [r7, #4]
 8002ffe:	6a1b      	ldr	r3, [r3, #32]
 8003000:	f5b3 3f80 	cmp.w	r3, #65536	@ 0x10000
 8003004:	d108      	bne.n	8003018 <HAL_RCC_OscConfig+0x444>
 8003006:	4b24      	ldr	r3, [pc, #144]	@ (8003098 <HAL_RCC_OscConfig+0x4c4>)
 8003008:	685b      	ldr	r3, [r3, #4]
 800300a:	f423 3200 	bic.w	r2, r3, #131072	@ 0x20000
 800300e:	687b      	ldr	r3, [r7, #4]
 8003010:	689b      	ldr	r3, [r3, #8]
 8003012:	4921      	ldr	r1, [pc, #132]	@ (8003098 <HAL_RCC_OscConfig+0x4c4>)
 8003014:	4313      	orrs	r3, r2
 8003016:	604b      	str	r3, [r1, #4]
 8003018:	4b1f      	ldr	r3, [pc, #124]	@ (8003098 <HAL_RCC_OscConfig+0x4c4>)
 800301a:	685b      	ldr	r3, [r3, #4]
 800301c:	f423 1274 	bic.w	r2, r3, #3997696	@ 0x3d0000
 8003020:	687b      	ldr	r3, [r7, #4]
 8003022:	6a19      	ldr	r1, [r3, #32]
 8003024:	687b      	ldr	r3, [r7, #4]
 8003026:	6a5b      	ldr	r3, [r3, #36]	@ 0x24
 8003028:	430b      	orrs	r3, r1
 800302a:	491b      	ldr	r1, [pc, #108]	@ (8003098 <HAL_RCC_OscConfig+0x4c4>)
 800302c:	4313      	orrs	r3, r2
 800302e:	604b      	str	r3, [r1, #4]
 8003030:	4b1b      	ldr	r3, [pc, #108]	@ (80030a0 <HAL_RCC_OscConfig+0x4cc>)
 8003032:	2201      	movs	r2, #1
 8003034:	601a      	str	r2, [r3, #0]
 8003036:	f7fe fa73 	bl	8001520 <HAL_GetTick>
 800303a:	6138      	str	r0, [r7, #16]
 800303c:	e008      	b.n	8003050 <HAL_RCC_OscConfig+0x47c>
 800303e:	f7fe fa6f 	bl	8001520 <HAL_GetTick>
 8003042:	4602      	mov	r2, r0
 8003044:	693b      	ldr	r3, [r7, #16]
 8003046:	1ad3      	subs	r3, r2, r3
 8003048:	2b02      	cmp	r3, #2
 800304a:	d901      	bls.n	8003050 <HAL_RCC_OscConfig+0x47c>
 800304c:	2303      	movs	r3, #3
 800304e:	e03d      	b.n	80030cc <HAL_RCC_OscConfig+0x4f8>
 8003050:	4b11      	ldr	r3, [pc, #68]	@ (8003098 <HAL_RCC_OscConfig+0x4c4>)
 8003052:	681b      	ldr	r3, [r3, #0]
 8003054:	f003 7300 	and.w	r3, r3, #33554432	@ 0x2000000
 8003058:	2b00      	cmp	r3, #0
 800305a:	d0f0      	beq.n	800303e <HAL_RCC_OscConfig+0x46a>
 800305c:	e035      	b.n	80030ca <HAL_RCC_OscConfig+0x4f6>
 800305e:	4b10      	ldr	r3, [pc, #64]	@ (80030a0 <HAL_RCC_OscConfig+0x4cc>)
 8003060:	2200      	movs	r2, #0
 8003062:	601a      	str	r2, [r3, #0]
 8003064:	f7fe fa5c 	bl	8001520 <HAL_GetTick>
 8003068:	6138      	str	r0, [r7, #16]
 800306a:	e008      	b.n	800307e <HAL_RCC_OscConfig+0x4aa>
 800306c:	f7fe fa58 	bl	8001520 <HAL_GetTick>
 8003070:	4602      	mov	r2, r0
 8003072:	693b      	ldr	r3, [r7, #16]
 8003074:	1ad3      	subs	r3, r2, r3
 8003076:	2b02      	cmp	r3, #2
 8003078:	d901      	bls.n	800307e <HAL_RCC_OscConfig+0x4aa>
 800307a:	2303      	movs	r3, #3
 800307c:	e026      	b.n	80030cc <HAL_RCC_OscConfig+0x4f8>
 800307e:	4b06      	ldr	r3, [pc, #24]	@ (8003098 <HAL_RCC_OscConfig+0x4c4>)
 8003080:	681b      	ldr	r3, [r3, #0]
 8003082:	f003 7300 	and.w	r3, r3, #33554432	@ 0x2000000
 8003086:	2b00      	cmp	r3, #0
 8003088:	d1f0      	bne.n	800306c <HAL_RCC_OscConfig+0x498>
 800308a:	e01e      	b.n	80030ca <HAL_RCC_OscConfig+0x4f6>
 800308c:	687b      	ldr	r3, [r7, #4]
 800308e:	69db      	ldr	r3, [r3, #28]
 8003090:	2b01      	cmp	r3, #1
 8003092:	d107      	bne.n	80030a4 <HAL_RCC_OscConfig+0x4d0>
 8003094:	2301      	movs	r3, #1
 8003096:	e019      	b.n	80030cc <HAL_RCC_OscConfig+0x4f8>
 8003098:	40021000 	.word	0x40021000
 800309c:	40007000 	.word	0x40007000
 80030a0:	42420060 	.word	0x42420060
 80030a4:	4b0b      	ldr	r3, [pc, #44]	@ (80030d4 <HAL_RCC_OscConfig+0x500>)
 80030a6:	685b      	ldr	r3, [r3, #4]
 80030a8:	60fb      	str	r3, [r7, #12]
 80030aa:	68fb      	ldr	r3, [r7, #12]
 80030ac:	f403 3280 	and.w	r2, r3, #65536	@ 0x10000
 80030b0:	687b      	ldr	r3, [r7, #4]
 80030b2:	6a1b      	ldr	r3, [r3, #32]
 80030b4:	429a      	cmp	r2, r3
 80030b6:	d106      	bne.n	80030c6 <HAL_RCC_OscConfig+0x4f2>
 80030b8:	68fb      	ldr	r3, [r7, #12]
 80030ba:	f403 1270 	and.w	r2, r3, #3932160	@ 0x3c0000
 80030be:	687b      	ldr	r3, [r7, #4]
 80030c0:	6a5b      	ldr	r3, [r3, #36]	@ 0x24
 80030c2:	429a      	cmp	r2, r3
 80030c4:	d001      	beq.n	80030ca <HAL_RCC_OscConfig+0x4f6>
 80030c6:	2301      	movs	r3, #1
 80030c8:	e000      	b.n	80030cc <HAL_RCC_OscConfig+0x4f8>
 80030ca:	2300      	movs	r3, #0
 80030cc:	4618      	mov	r0, r3
 80030ce:	3718      	adds	r7, #24
 80030d0:	46bd      	mov	sp, r7
 80030d2:	bd80      	pop	{r7, pc}
 80030d4:	40021000 	.word	0x40021000

080030d8 <HAL_RCC_ClockConfig>:
 80030d8:	b580      	push	{r7, lr}
 80030da:	b084      	sub	sp, #16
 80030dc:	af00      	add	r7, sp, #0
 80030de:	6078      	str	r0, [r7, #4]
 80030e0:	6039      	str	r1, [r7, #0]
 80030e2:	687b      	ldr	r3, [r7, #4]
 80030e4:	2b00      	cmp	r3, #0
 80030e6:	d101      	bne.n	80030ec <HAL_RCC_ClockConfig+0x14>
 80030e8:	2301      	movs	r3, #1
 80030ea:	e0d0      	b.n	800328e <HAL_RCC_ClockConfig+0x1b6>
 80030ec:	4b6a      	ldr	r3, [pc, #424]	@ (8003298 <HAL_RCC_ClockConfig+0x1c0>)
 80030ee:	681b      	ldr	r3, [r3, #0]
 80030f0:	f003 0307 	and.w	r3, r3, #7
 80030f4:	683a      	ldr	r2, [r7, #0]
 80030f6:	429a      	cmp	r2, r3
 80030f8:	d910      	bls.n	800311c <HAL_RCC_ClockConfig+0x44>
 80030fa:	4b67      	ldr	r3, [pc, #412]	@ (8003298 <HAL_RCC_ClockConfig+0x1c0>)
 80030fc:	681b      	ldr	r3, [r3, #0]
 80030fe:	f023 0207 	bic.w	r2, r3, #7
 8003102:	4965      	ldr	r1, [pc, #404]	@ (8003298 <HAL_RCC_ClockConfig+0x1c0>)
 8003104:	683b      	ldr	r3, [r7, #0]
 8003106:	4313      	orrs	r3, r2
 8003108:	600b      	str	r3, [r1, #0]
 800310a:	4b63      	ldr	r3, [pc, #396]	@ (8003298 <HAL_RCC_ClockConfig+0x1c0>)
 800310c:	681b      	ldr	r3, [r3, #0]
 800310e:	f003 0307 	and.w	r3, r3, #7
 8003112:	683a      	ldr	r2, [r7, #0]
 8003114:	429a      	cmp	r2, r3
 8003116:	d001      	beq.n	800311c <HAL_RCC_ClockConfig+0x44>
 8003118:	2301      	movs	r3, #1
 800311a:	e0b8      	b.n	800328e <HAL_RCC_ClockConfig+0x1b6>
 800311c:	687b      	ldr	r3, [r7, #4]
 800311e:	681b      	ldr	r3, [r3, #0]
 8003120:	f003 0302 	and.w	r3, r3, #2
 8003124:	2b00      	cmp	r3, #0
 8003126:	d020      	beq.n	800316a <HAL_RCC_ClockConfig+0x92>
 8003128:	687b      	ldr	r3, [r7, #4]
 800312a:	681b      	ldr	r3, [r3, #0]
 800312c:	f003 0304 	and.w	r3, r3, #4
 8003130:	2b00      	cmp	r3, #0
 8003132:	d005      	beq.n	8003140 <HAL_RCC_ClockConfig+0x68>
 8003134:	4b59      	ldr	r3, [pc, #356]	@ (800329c <HAL_RCC_ClockConfig+0x1c4>)
 8003136:	685b      	ldr	r3, [r3, #4]
 8003138:	4a58      	ldr	r2, [pc, #352]	@ (800329c <HAL_RCC_ClockConfig+0x1c4>)
 800313a:	f443 63e0 	orr.w	r3, r3, #1792	@ 0x700
 800313e:	6053      	str	r3, [r2, #4]
 8003140:	687b      	ldr	r3, [r7, #4]
 8003142:	681b      	ldr	r3, [r3, #0]
 8003144:	f003 0308 	and.w	r3, r3, #8
 8003148:	2b00      	cmp	r3, #0
 800314a:	d005      	beq.n	8003158 <HAL_RCC_ClockConfig+0x80>
 800314c:	4b53      	ldr	r3, [pc, #332]	@ (800329c <HAL_RCC_ClockConfig+0x1c4>)
 800314e:	685b      	ldr	r3, [r3, #4]
 8003150:	4a52      	ldr	r2, [pc, #328]	@ (800329c <HAL_RCC_ClockConfig+0x1c4>)
 8003152:	f443 5360 	orr.w	r3, r3, #14336	@ 0x3800
 8003156:	6053      	str	r3, [r2, #4]
 8003158:	4b50      	ldr	r3, [pc, #320]	@ (800329c <HAL_RCC_ClockConfig+0x1c4>)
 800315a:	685b      	ldr	r3, [r3, #4]
 800315c:	f023 02f0 	bic.w	r2, r3, #240	@ 0xf0
 8003160:	687b      	ldr	r3, [r7, #4]
 8003162:	689b      	ldr	r3, [r3, #8]
 8003164:	494d      	ldr	r1, [pc, #308]	@ (800329c <HAL_RCC_ClockConfig+0x1c4>)
 8003166:	4313      	orrs	r3, r2
 8003168:	604b      	str	r3, [r1, #4]
 800316a:	687b      	ldr	r3, [r7, #4]
 800316c:	681b      	ldr	r3, [r3, #0]
 800316e:	f003 0301 	and.w	r3, r3, #1
 8003172:	2b00      	cmp	r3, #0
 8003174:	d040      	beq.n	80031f8 <HAL_RCC_ClockConfig+0x120>
 8003176:	687b      	ldr	r3, [r7, #4]
 8003178:	685b      	ldr	r3, [r3, #4]
 800317a:	2b01      	cmp	r3, #1
 800317c:	d107      	bne.n	800318e <HAL_RCC_ClockConfig+0xb6>
 800317e:	4b47      	ldr	r3, [pc, #284]	@ (800329c <HAL_RCC_ClockConfig+0x1c4>)
 8003180:	681b      	ldr	r3, [r3, #0]
 8003182:	f403 3300 	and.w	r3, r3, #131072	@ 0x20000
 8003186:	2b00      	cmp	r3, #0
 8003188:	d115      	bne.n	80031b6 <HAL_RCC_ClockConfig+0xde>
 800318a:	2301      	movs	r3, #1
 800318c:	e07f      	b.n	800328e <HAL_RCC_ClockConfig+0x1b6>
 800318e:	687b      	ldr	r3, [r7, #4]
 8003190:	685b      	ldr	r3, [r3, #4]
 8003192:	2b02      	cmp	r3, #2
 8003194:	d107      	bne.n	80031a6 <HAL_RCC_ClockConfig+0xce>
 8003196:	4b41      	ldr	r3, [pc, #260]	@ (800329c <HAL_RCC_ClockConfig+0x1c4>)
 8003198:	681b      	ldr	r3, [r3, #0]
 800319a:	f003 7300 	and.w	r3, r3, #33554432	@ 0x2000000
 800319e:	2b00      	cmp	r3, #0
 80031a0:	d109      	bne.n	80031b6 <HAL_RCC_ClockConfig+0xde>
 80031a2:	2301      	movs	r3, #1
 80031a4:	e073      	b.n	800328e <HAL_RCC_ClockConfig+0x1b6>
 80031a6:	4b3d      	ldr	r3, [pc, #244]	@ (800329c <HAL_RCC_ClockConfig+0x1c4>)
 80031a8:	681b      	ldr	r3, [r3, #0]
 80031aa:	f003 0302 	and.w	r3, r3, #2
 80031ae:	2b00      	cmp	r3, #0
 80031b0:	d101      	bne.n	80031b6 <HAL_RCC_ClockConfig+0xde>
 80031b2:	2301      	movs	r3, #1
 80031b4:	e06b      	b.n	800328e <HAL_RCC_ClockConfig+0x1b6>
 80031b6:	4b39      	ldr	r3, [pc, #228]	@ (800329c <HAL_RCC_ClockConfig+0x1c4>)
 80031b8:	685b      	ldr	r3, [r3, #4]
 80031ba:	f023 0203 	bic.w	r2, r3, #3
 80031be:	687b      	ldr	r3, [r7, #4]
 80031c0:	685b      	ldr	r3, [r3, #4]
 80031c2:	4936      	ldr	r1, [pc, #216]	@ (800329c <HAL_RCC_ClockConfig+0x1c4>)
 80031c4:	4313      	orrs	r3, r2
 80031c6:	604b      	str	r3, [r1, #4]
 80031c8:	f7fe f9aa 	bl	8001520 <HAL_GetTick>
 80031cc:	60f8      	str	r0, [r7, #12]
 80031ce:	e00a      	b.n	80031e6 <HAL_RCC_ClockConfig+0x10e>
 80031d0:	f7fe f9a6 	bl	8001520 <HAL_GetTick>
 80031d4:	4602      	mov	r2, r0
 80031d6:	68fb      	ldr	r3, [r7, #12]
 80031d8:	1ad3      	subs	r3, r2, r3
 80031da:	f241 3288 	movw	r2, #5000	@ 0x1388
 80031de:	4293      	cmp	r3, r2
 80031e0:	d901      	bls.n	80031e6 <HAL_RCC_ClockConfig+0x10e>
 80031e2:	2303      	movs	r3, #3
 80031e4:	e053      	b.n	800328e <HAL_RCC_ClockConfig+0x1b6>
 80031e6:	4b2d      	ldr	r3, [pc, #180]	@ (800329c <HAL_RCC_ClockConfig+0x1c4>)
 80031e8:	685b      	ldr	r3, [r3, #4]
 80031ea:	f003 020c 	and.w	r2, r3, #12
 80031ee:	687b      	ldr	r3, [r7, #4]
 80031f0:	685b      	ldr	r3, [r3, #4]
 80031f2:	009b      	lsls	r3, r3, #2
 80031f4:	429a      	cmp	r2, r3
 80031f6:	d1eb      	bne.n	80031d0 <HAL_RCC_ClockConfig+0xf8>
 80031f8:	4b27      	ldr	r3, [pc, #156]	@ (8003298 <HAL_RCC_ClockConfig+0x1c0>)
 80031fa:	681b      	ldr	r3, [r3, #0]
 80031fc:	f003 0307 	and.w	r3, r3, #7
 8003200:	683a      	ldr	r2, [r7, #0]
 8003202:	429a      	cmp	r2, r3
 8003204:	d210      	bcs.n	8003228 <HAL_RCC_ClockConfig+0x150>
 8003206:	4b24      	ldr	r3, [pc, #144]	@ (8003298 <HAL_RCC_ClockConfig+0x1c0>)
 8003208:	681b      	ldr	r3, [r3, #0]
 800320a:	f023 0207 	bic.w	r2, r3, #7
 800320e:	4922      	ldr	r1, [pc, #136]	@ (8003298 <HAL_RCC_ClockConfig+0x1c0>)
 8003210:	683b      	ldr	r3, [r7, #0]
 8003212:	4313      	orrs	r3, r2
 8003214:	600b      	str	r3, [r1, #0]
 8003216:	4b20      	ldr	r3, [pc, #128]	@ (8003298 <HAL_RCC_ClockConfig+0x1c0>)
 8003218:	681b      	ldr	r3, [r3, #0]
 800321a:	f003 0307 	and.w	r3, r3, #7
 800321e:	683a      	ldr	r2, [r7, #0]
 8003220:	429a      	cmp	r2, r3
 8003222:	d001      	beq.n	8003228 <HAL_RCC_ClockConfig+0x150>
 8003224:	2301      	movs	r3, #1
 8003226:	e032      	b.n	800328e <HAL_RCC_ClockConfig+0x1b6>
 8003228:	687b      	ldr	r3, [r7, #4]
 800322a:	681b      	ldr	r3, [r3, #0]
 800322c:	f003 0304 	and.w	r3, r3, #4
 8003230:	2b00      	cmp	r3, #0
 8003232:	d008      	beq.n	8003246 <HAL_RCC_ClockConfig+0x16e>
 8003234:	4b19      	ldr	r3, [pc, #100]	@ (800329c <HAL_RCC_ClockConfig+0x1c4>)
 8003236:	685b      	ldr	r3, [r3, #4]
 8003238:	f423 62e0 	bic.w	r2, r3, #1792	@ 0x700
 800323c:	687b      	ldr	r3, [r7, #4]
 800323e:	68db      	ldr	r3, [r3, #12]
 8003240:	4916      	ldr	r1, [pc, #88]	@ (800329c <HAL_RCC_ClockConfig+0x1c4>)
 8003242:	4313      	orrs	r3, r2
 8003244:	604b      	str	r3, [r1, #4]
 8003246:	687b      	ldr	r3, [r7, #4]
 8003248:	681b      	ldr	r3, [r3, #0]
 800324a:	f003 0308 	and.w	r3, r3, #8
 800324e:	2b00      	cmp	r3, #0
 8003250:	d009      	beq.n	8003266 <HAL_RCC_ClockConfig+0x18e>
 8003252:	4b12      	ldr	r3, [pc, #72]	@ (800329c <HAL_RCC_ClockConfig+0x1c4>)
 8003254:	685b      	ldr	r3, [r3, #4]
 8003256:	f423 5260 	bic.w	r2, r3, #14336	@ 0x3800
 800325a:	687b      	ldr	r3, [r7, #4]
 800325c:	691b      	ldr	r3, [r3, #16]
 800325e:	00db      	lsls	r3, r3, #3
 8003260:	490e      	ldr	r1, [pc, #56]	@ (800329c <HAL_RCC_ClockConfig+0x1c4>)
 8003262:	4313      	orrs	r3, r2
 8003264:	604b      	str	r3, [r1, #4]
 8003266:	f000 f821 	bl	80032ac <HAL_RCC_GetSysClockFreq>
 800326a:	4602      	mov	r2, r0
 800326c:	4b0b      	ldr	r3, [pc, #44]	@ (800329c <HAL_RCC_ClockConfig+0x1c4>)
 800326e:	685b      	ldr	r3, [r3, #4]
 8003270:	091b      	lsrs	r3, r3, #4
 8003272:	f003 030f 	and.w	r3, r3, #15
 8003276:	490a      	ldr	r1, [pc, #40]	@ (80032a0 <HAL_RCC_ClockConfig+0x1c8>)
 8003278:	5ccb      	ldrb	r3, [r1, r3]
 800327a:	fa22 f303 	lsr.w	r3, r2, r3
 800327e:	4a09      	ldr	r2, [pc, #36]	@ (80032a4 <HAL_RCC_ClockConfig+0x1cc>)
 8003280:	6013      	str	r3, [r2, #0]
 8003282:	4b09      	ldr	r3, [pc, #36]	@ (80032a8 <HAL_RCC_ClockConfig+0x1d0>)
 8003284:	681b      	ldr	r3, [r3, #0]
 8003286:	4618      	mov	r0, r3
 8003288:	f7fe f908 	bl	800149c <HAL_InitTick>
 800328c:	2300      	movs	r3, #0
 800328e:	4618      	mov	r0, r3
 8003290:	3710      	adds	r7, #16
 8003292:	46bd      	mov	sp, r7
 8003294:	bd80      	pop	{r7, pc}
 8003296:	bf00      	nop
 8003298:	40022000 	.word	0x40022000
 800329c:	40021000 	.word	0x40021000
 80032a0:	08004ca4 	.word	0x08004ca4
 80032a4:	20000000 	.word	0x20000000
 80032a8:	20000004 	.word	0x20000004

080032ac <HAL_RCC_GetSysClockFreq>:
 80032ac:	b480      	push	{r7}
 80032ae:	b087      	sub	sp, #28
 80032b0:	af00      	add	r7, sp, #0
 80032b2:	2300      	movs	r3, #0
 80032b4:	60fb      	str	r3, [r7, #12]
 80032b6:	2300      	movs	r3, #0
 80032b8:	60bb      	str	r3, [r7, #8]
 80032ba:	2300      	movs	r3, #0
 80032bc:	617b      	str	r3, [r7, #20]
 80032be:	2300      	movs	r3, #0
 80032c0:	607b      	str	r3, [r7, #4]
 80032c2:	2300      	movs	r3, #0
 80032c4:	613b      	str	r3, [r7, #16]
 80032c6:	4b1e      	ldr	r3, [pc, #120]	@ (8003340 <HAL_RCC_GetSysClockFreq+0x94>)
 80032c8:	685b      	ldr	r3, [r3, #4]
 80032ca:	60fb      	str	r3, [r7, #12]
 80032cc:	68fb      	ldr	r3, [r7, #12]
 80032ce:	f003 030c 	and.w	r3, r3, #12
 80032d2:	2b04      	cmp	r3, #4
 80032d4:	d002      	beq.n	80032dc <HAL_RCC_GetSysClockFreq+0x30>
 80032d6:	2b08      	cmp	r3, #8
 80032d8:	d003      	beq.n	80032e2 <HAL_RCC_GetSysClockFreq+0x36>
 80032da:	e027      	b.n	800332c <HAL_RCC_GetSysClockFreq+0x80>
 80032dc:	4b19      	ldr	r3, [pc, #100]	@ (8003344 <HAL_RCC_GetSysClockFreq+0x98>)
 80032de:	613b      	str	r3, [r7, #16]
 80032e0:	e027      	b.n	8003332 <HAL_RCC_GetSysClockFreq+0x86>
 80032e2:	68fb      	ldr	r3, [r7, #12]
 80032e4:	0c9b      	lsrs	r3, r3, #18
 80032e6:	f003 030f 	and.w	r3, r3, #15
 80032ea:	4a17      	ldr	r2, [pc, #92]	@ (8003348 <HAL_RCC_GetSysClockFreq+0x9c>)
 80032ec:	5cd3      	ldrb	r3, [r2, r3]
 80032ee:	607b      	str	r3, [r7, #4]
 80032f0:	68fb      	ldr	r3, [r7, #12]
 80032f2:	f403 3380 	and.w	r3, r3, #65536	@ 0x10000
 80032f6:	2b00      	cmp	r3, #0
 80032f8:	d010      	beq.n	800331c <HAL_RCC_GetSysClockFreq+0x70>
 80032fa:	4b11      	ldr	r3, [pc, #68]	@ (8003340 <HAL_RCC_GetSysClockFreq+0x94>)
 80032fc:	685b      	ldr	r3, [r3, #4]
 80032fe:	0c5b      	lsrs	r3, r3, #17
 8003300:	f003 0301 	and.w	r3, r3, #1
 8003304:	4a11      	ldr	r2, [pc, #68]	@ (800334c <HAL_RCC_GetSysClockFreq+0xa0>)
 8003306:	5cd3      	ldrb	r3, [r2, r3]
 8003308:	60bb      	str	r3, [r7, #8]
 800330a:	687b      	ldr	r3, [r7, #4]
 800330c:	4a0d      	ldr	r2, [pc, #52]	@ (8003344 <HAL_RCC_GetSysClockFreq+0x98>)
 800330e:	fb03 f202 	mul.w	r2, r3, r2
 8003312:	68bb      	ldr	r3, [r7, #8]
 8003314:	fbb2 f3f3 	udiv	r3, r2, r3
 8003318:	617b      	str	r3, [r7, #20]
 800331a:	e004      	b.n	8003326 <HAL_RCC_GetSysClockFreq+0x7a>
 800331c:	687b      	ldr	r3, [r7, #4]
 800331e:	4a0c      	ldr	r2, [pc, #48]	@ (8003350 <HAL_RCC_GetSysClockFreq+0xa4>)
 8003320:	fb02 f303 	mul.w	r3, r2, r3
 8003324:	617b      	str	r3, [r7, #20]
 8003326:	697b      	ldr	r3, [r7, #20]
 8003328:	613b      	str	r3, [r7, #16]
 800332a:	e002      	b.n	8003332 <HAL_RCC_GetSysClockFreq+0x86>
 800332c:	4b09      	ldr	r3, [pc, #36]	@ (8003354 <HAL_RCC_GetSysClockFreq+0xa8>)
 800332e:	613b      	str	r3, [r7, #16]
 8003330:	bf00      	nop
 8003332:	693b      	ldr	r3, [r7, #16]
 8003334:	4618      	mov	r0, r3
 8003336:	371c      	adds	r7, #28
 8003338:	46bd      	mov	sp, r7
 800333a:	bc80      	pop	{r7}
 800333c:	4770      	bx	lr
 800333e:	bf00      	nop
 8003340:	40021000 	.word	0x40021000
 8003344:	00f42400 	.word	0x00f42400
 8003348:	08004cbc 	.word	0x08004cbc
 800334c:	08004ccc 	.word	0x08004ccc
 8003350:	003d0900 	.word	0x003d0900
 8003354:	007a1200 	.word	0x007a1200

08003358 <HAL_RCC_GetHCLKFreq>:
 8003358:	b480      	push	{r7}
 800335a:	af00      	add	r7, sp, #0
 800335c:	4b02      	ldr	r3, [pc, #8]	@ (8003368 <HAL_RCC_GetHCLKFreq+0x10>)
 800335e:	681b      	ldr	r3, [r3, #0]
 8003360:	4618      	mov	r0, r3
 8003362:	46bd      	mov	sp, r7
 8003364:	bc80      	pop	{r7}
 8003366:	4770      	bx	lr
 8003368:	20000000 	.word	0x20000000

0800336c <HAL_RCC_GetPCLK1Freq>:
 800336c:	b580      	push	{r7, lr}
 800336e:	af00      	add	r7, sp, #0
 8003370:	f7ff fff2 	bl	8003358 <HAL_RCC_GetHCLKFreq>
 8003374:	4602      	mov	r2, r0
 8003376:	4b05      	ldr	r3, [pc, #20]	@ (800338c <HAL_RCC_GetPCLK1Freq+0x20>)
 8003378:	685b      	ldr	r3, [r3, #4]
 800337a:	0a1b      	lsrs	r3, r3, #8
 800337c:	f003 0307 	and.w	r3, r3, #7
 8003380:	4903      	ldr	r1, [pc, #12]	@ (8003390 <HAL_RCC_GetPCLK1Freq+0x24>)
 8003382:	5ccb      	ldrb	r3, [r1, r3]
 8003384:	fa22 f303 	lsr.w	r3, r2, r3
 8003388:	4618      	mov	r0, r3
 800338a:	bd80      	pop	{r7, pc}
 800338c:	40021000 	.word	0x40021000
 8003390:	08004cb4 	.word	0x08004cb4

08003394 <HAL_RCC_GetPCLK2Freq>:
 8003394:	b580      	push	{r7, lr}
 8003396:	af00      	add	r7, sp, #0
 8003398:	f7ff ffde 	bl	8003358 <HAL_RCC_GetHCLKFreq>
 800339c:	4602      	mov	r2, r0
 800339e:	4b05      	ldr	r3, [pc, #20]	@ (80033b4 <HAL_RCC_GetPCLK2Freq+0x20>)
 80033a0:	685b      	ldr	r3, [r3, #4]
 80033a2:	0adb      	lsrs	r3, r3, #11
 80033a4:	f003 0307 	and.w	r3, r3, #7
 80033a8:	4903      	ldr	r1, [pc, #12]	@ (80033b8 <HAL_RCC_GetPCLK2Freq+0x24>)
 80033aa:	5ccb      	ldrb	r3, [r1, r3]
 80033ac:	fa22 f303 	lsr.w	r3, r2, r3
 80033b0:	4618      	mov	r0, r3
 80033b2:	bd80      	pop	{r7, pc}
 80033b4:	40021000 	.word	0x40021000
 80033b8:	08004cb4 	.word	0x08004cb4

080033bc <RCC_Delay>:
 80033bc:	b480      	push	{r7}
 80033be:	b085      	sub	sp, #20
 80033c0:	af00      	add	r7, sp, #0
 80033c2:	6078      	str	r0, [r7, #4]
 80033c4:	4b0a      	ldr	r3, [pc, #40]	@ (80033f0 <RCC_Delay+0x34>)
 80033c6:	681b      	ldr	r3, [r3, #0]
 80033c8:	4a0a      	ldr	r2, [pc, #40]	@ (80033f4 <RCC_Delay+0x38>)
 80033ca:	fba2 2303 	umull	r2, r3, r2, r3
 80033ce:	0a5b      	lsrs	r3, r3, #9
 80033d0:	687a      	ldr	r2, [r7, #4]
 80033d2:	fb02 f303 	mul.w	r3, r2, r3
 80033d6:	60fb      	str	r3, [r7, #12]
 80033d8:	bf00      	nop
 80033da:	68fb      	ldr	r3, [r7, #12]
 80033dc:	1e5a      	subs	r2, r3, #1
 80033de:	60fa      	str	r2, [r7, #12]
 80033e0:	2b00      	cmp	r3, #0
 80033e2:	d1f9      	bne.n	80033d8 <RCC_Delay+0x1c>
 80033e4:	bf00      	nop
 80033e6:	bf00      	nop
 80033e8:	3714      	adds	r7, #20
 80033ea:	46bd      	mov	sp, r7
 80033ec:	bc80      	pop	{r7}
 80033ee:	4770      	bx	lr
 80033f0:	20000000 	.word	0x20000000
 80033f4:	10624dd3 	.word	0x10624dd3

080033f8 <HAL_TIM_Base_Init>:
 80033f8:	b580      	push	{r7, lr}
 80033fa:	b082      	sub	sp, #8
 80033fc:	af00      	add	r7, sp, #0
 80033fe:	6078      	str	r0, [r7, #4]
 8003400:	687b      	ldr	r3, [r7, #4]
 8003402:	2b00      	cmp	r3, #0
 8003404:	d101      	bne.n	800340a <HAL_TIM_Base_Init+0x12>
 8003406:	2301      	movs	r3, #1
 8003408:	e041      	b.n	800348e <HAL_TIM_Base_Init+0x96>
 800340a:	687b      	ldr	r3, [r7, #4]
 800340c:	f893 303d 	ldrb.w	r3, [r3, #61]	@ 0x3d
 8003410:	b2db      	uxtb	r3, r3
 8003412:	2b00      	cmp	r3, #0
 8003414:	d106      	bne.n	8003424 <HAL_TIM_Base_Init+0x2c>
 8003416:	687b      	ldr	r3, [r7, #4]
 8003418:	2200      	movs	r2, #0
 800341a:	f883 203c 	strb.w	r2, [r3, #60]	@ 0x3c
 800341e:	6878      	ldr	r0, [r7, #4]
 8003420:	f7fd ff04 	bl	800122c <HAL_TIM_Base_MspInit>
 8003424:	687b      	ldr	r3, [r7, #4]
 8003426:	2202      	movs	r2, #2
 8003428:	f883 203d 	strb.w	r2, [r3, #61]	@ 0x3d
 800342c:	687b      	ldr	r3, [r7, #4]
 800342e:	681a      	ldr	r2, [r3, #0]
 8003430:	687b      	ldr	r3, [r7, #4]
 8003432:	3304      	adds	r3, #4
 8003434:	4619      	mov	r1, r3
 8003436:	4610      	mov	r0, r2
 8003438:	f000 fa5c 	bl	80038f4 <TIM_Base_SetConfig>
 800343c:	687b      	ldr	r3, [r7, #4]
 800343e:	2201      	movs	r2, #1
 8003440:	f883 2046 	strb.w	r2, [r3, #70]	@ 0x46
 8003444:	687b      	ldr	r3, [r7, #4]
 8003446:	2201      	movs	r2, #1
 8003448:	f883 203e 	strb.w	r2, [r3, #62]	@ 0x3e
 800344c:	687b      	ldr	r3, [r7, #4]
 800344e:	2201      	movs	r2, #1
 8003450:	f883 203f 	strb.w	r2, [r3, #63]	@ 0x3f
 8003454:	687b      	ldr	r3, [r7, #4]
 8003456:	2201      	movs	r2, #1
 8003458:	f883 2040 	strb.w	r2, [r3, #64]	@ 0x40
 800345c:	687b      	ldr	r3, [r7, #4]
 800345e:	2201      	movs	r2, #1
 8003460:	f883 2041 	strb.w	r2, [r3, #65]	@ 0x41
 8003464:	687b      	ldr	r3, [r7, #4]
 8003466:	2201      	movs	r2, #1
 8003468:	f883 2042 	strb.w	r2, [r3, #66]	@ 0x42
 800346c:	687b      	ldr	r3, [r7, #4]
 800346e:	2201      	movs	r2, #1
 8003470:	f883 2043 	strb.w	r2, [r3, #67]	@ 0x43
 8003474:	687b      	ldr	r3, [r7, #4]
 8003476:	2201      	movs	r2, #1
 8003478:	f883 2044 	strb.w	r2, [r3, #68]	@ 0x44
 800347c:	687b      	ldr	r3, [r7, #4]
 800347e:	2201      	movs	r2, #1
 8003480:	f883 2045 	strb.w	r2, [r3, #69]	@ 0x45
 8003484:	687b      	ldr	r3, [r7, #4]
 8003486:	2201      	movs	r2, #1
 8003488:	f883 203d 	strb.w	r2, [r3, #61]	@ 0x3d
 800348c:	2300      	movs	r3, #0
 800348e:	4618      	mov	r0, r3
 8003490:	3708      	adds	r7, #8
 8003492:	46bd      	mov	sp, r7
 8003494:	bd80      	pop	{r7, pc}
	...

08003498 <HAL_TIM_Base_Start_IT>:
 8003498:	b480      	push	{r7}
 800349a:	b085      	sub	sp, #20
 800349c:	af00      	add	r7, sp, #0
 800349e:	6078      	str	r0, [r7, #4]
 80034a0:	687b      	ldr	r3, [r7, #4]
 80034a2:	f893 303d 	ldrb.w	r3, [r3, #61]	@ 0x3d
 80034a6:	b2db      	uxtb	r3, r3
 80034a8:	2b01      	cmp	r3, #1
 80034aa:	d001      	beq.n	80034b0 <HAL_TIM_Base_Start_IT+0x18>
 80034ac:	2301      	movs	r3, #1
 80034ae:	e03a      	b.n	8003526 <HAL_TIM_Base_Start_IT+0x8e>
 80034b0:	687b      	ldr	r3, [r7, #4]
 80034b2:	2202      	movs	r2, #2
 80034b4:	f883 203d 	strb.w	r2, [r3, #61]	@ 0x3d
 80034b8:	687b      	ldr	r3, [r7, #4]
 80034ba:	681b      	ldr	r3, [r3, #0]
 80034bc:	68da      	ldr	r2, [r3, #12]
 80034be:	687b      	ldr	r3, [r7, #4]
 80034c0:	681b      	ldr	r3, [r3, #0]
 80034c2:	f042 0201 	orr.w	r2, r2, #1
 80034c6:	60da      	str	r2, [r3, #12]
 80034c8:	687b      	ldr	r3, [r7, #4]
 80034ca:	681b      	ldr	r3, [r3, #0]
 80034cc:	4a18      	ldr	r2, [pc, #96]	@ (8003530 <HAL_TIM_Base_Start_IT+0x98>)
 80034ce:	4293      	cmp	r3, r2
 80034d0:	d00e      	beq.n	80034f0 <HAL_TIM_Base_Start_IT+0x58>
 80034d2:	687b      	ldr	r3, [r7, #4]
 80034d4:	681b      	ldr	r3, [r3, #0]
 80034d6:	f1b3 4f80 	cmp.w	r3, #1073741824	@ 0x40000000
 80034da:	d009      	beq.n	80034f0 <HAL_TIM_Base_Start_IT+0x58>
 80034dc:	687b      	ldr	r3, [r7, #4]
 80034de:	681b      	ldr	r3, [r3, #0]
 80034e0:	4a14      	ldr	r2, [pc, #80]	@ (8003534 <HAL_TIM_Base_Start_IT+0x9c>)
 80034e2:	4293      	cmp	r3, r2
 80034e4:	d004      	beq.n	80034f0 <HAL_TIM_Base_Start_IT+0x58>
 80034e6:	687b      	ldr	r3, [r7, #4]
 80034e8:	681b      	ldr	r3, [r3, #0]
 80034ea:	4a13      	ldr	r2, [pc, #76]	@ (8003538 <HAL_TIM_Base_Start_IT+0xa0>)
 80034ec:	4293      	cmp	r3, r2
 80034ee:	d111      	bne.n	8003514 <HAL_TIM_Base_Start_IT+0x7c>
 80034f0:	687b      	ldr	r3, [r7, #4]
 80034f2:	681b      	ldr	r3, [r3, #0]
 80034f4:	689b      	ldr	r3, [r3, #8]
 80034f6:	f003 0307 	and.w	r3, r3, #7
 80034fa:	60fb      	str	r3, [r7, #12]
 80034fc:	68fb      	ldr	r3, [r7, #12]
 80034fe:	2b06      	cmp	r3, #6
 8003500:	d010      	beq.n	8003524 <HAL_TIM_Base_Start_IT+0x8c>
 8003502:	687b      	ldr	r3, [r7, #4]
 8003504:	681b      	ldr	r3, [r3, #0]
 8003506:	681a      	ldr	r2, [r3, #0]
 8003508:	687b      	ldr	r3, [r7, #4]
 800350a:	681b      	ldr	r3, [r3, #0]
 800350c:	f042 0201 	orr.w	r2, r2, #1
 8003510:	601a      	str	r2, [r3, #0]
 8003512:	e007      	b.n	8003524 <HAL_TIM_Base_Start_IT+0x8c>
 8003514:	687b      	ldr	r3, [r7, #4]
 8003516:	681b      	ldr	r3, [r3, #0]
 8003518:	681a      	ldr	r2, [r3, #0]
 800351a:	687b      	ldr	r3, [r7, #4]
 800351c:	681b      	ldr	r3, [r3, #0]
 800351e:	f042 0201 	orr.w	r2, r2, #1
 8003522:	601a      	str	r2, [r3, #0]
 8003524:	2300      	movs	r3, #0
 8003526:	4618      	mov	r0, r3
 8003528:	3714      	adds	r7, #20
 800352a:	46bd      	mov	sp, r7
 800352c:	bc80      	pop	{r7}
 800352e:	4770      	bx	lr
 8003530:	40012c00 	.word	0x40012c00
 8003534:	40000400 	.word	0x40000400
 8003538:	40000800 	.word	0x40000800

0800353c <HAL_TIM_IRQHandler>:
 800353c:	b580      	push	{r7, lr}
 800353e:	b084      	sub	sp, #16
 8003540:	af00      	add	r7, sp, #0
 8003542:	6078      	str	r0, [r7, #4]
 8003544:	687b      	ldr	r3, [r7, #4]
 8003546:	681b      	ldr	r3, [r3, #0]
 8003548:	68db      	ldr	r3, [r3, #12]
 800354a:	60fb      	str	r3, [r7, #12]
 800354c:	687b      	ldr	r3, [r7, #4]
 800354e:	681b      	ldr	r3, [r3, #0]
 8003550:	691b      	ldr	r3, [r3, #16]
 8003552:	60bb      	str	r3, [r7, #8]
 8003554:	68bb      	ldr	r3, [r7, #8]
 8003556:	f003 0302 	and.w	r3, r3, #2
 800355a:	2b00      	cmp	r3, #0
 800355c:	d020      	beq.n	80035a0 <HAL_TIM_IRQHandler+0x64>
 800355e:	68fb      	ldr	r3, [r7, #12]
 8003560:	f003 0302 	and.w	r3, r3, #2
 8003564:	2b00      	cmp	r3, #0
 8003566:	d01b      	beq.n	80035a0 <HAL_TIM_IRQHandler+0x64>
 8003568:	687b      	ldr	r3, [r7, #4]
 800356a:	681b      	ldr	r3, [r3, #0]
 800356c:	f06f 0202 	mvn.w	r2, #2
 8003570:	611a      	str	r2, [r3, #16]
 8003572:	687b      	ldr	r3, [r7, #4]
 8003574:	2201      	movs	r2, #1
 8003576:	771a      	strb	r2, [r3, #28]
 8003578:	687b      	ldr	r3, [r7, #4]
 800357a:	681b      	ldr	r3, [r3, #0]
 800357c:	699b      	ldr	r3, [r3, #24]
 800357e:	f003 0303 	and.w	r3, r3, #3
 8003582:	2b00      	cmp	r3, #0
 8003584:	d003      	beq.n	800358e <HAL_TIM_IRQHandler+0x52>
 8003586:	6878      	ldr	r0, [r7, #4]
 8003588:	f000 f998 	bl	80038bc <HAL_TIM_IC_CaptureCallback>
 800358c:	e005      	b.n	800359a <HAL_TIM_IRQHandler+0x5e>
 800358e:	6878      	ldr	r0, [r7, #4]
 8003590:	f000 f98b 	bl	80038aa <HAL_TIM_OC_DelayElapsedCallback>
 8003594:	6878      	ldr	r0, [r7, #4]
 8003596:	f000 f99a 	bl	80038ce <HAL_TIM_PWM_PulseFinishedCallback>
 800359a:	687b      	ldr	r3, [r7, #4]
 800359c:	2200      	movs	r2, #0
 800359e:	771a      	strb	r2, [r3, #28]
 80035a0:	68bb      	ldr	r3, [r7, #8]
 80035a2:	f003 0304 	and.w	r3, r3, #4
 80035a6:	2b00      	cmp	r3, #0
 80035a8:	d020      	beq.n	80035ec <HAL_TIM_IRQHandler+0xb0>
 80035aa:	68fb      	ldr	r3, [r7, #12]
 80035ac:	f003 0304 	and.w	r3, r3, #4
 80035b0:	2b00      	cmp	r3, #0
 80035b2:	d01b      	beq.n	80035ec <HAL_TIM_IRQHandler+0xb0>
 80035b4:	687b      	ldr	r3, [r7, #4]
 80035b6:	681b      	ldr	r3, [r3, #0]
 80035b8:	f06f 0204 	mvn.w	r2, #4
 80035bc:	611a      	str	r2, [r3, #16]
 80035be:	687b      	ldr	r3, [r7, #4]
 80035c0:	2202      	movs	r2, #2
 80035c2:	771a      	strb	r2, [r3, #28]
 80035c4:	687b      	ldr	r3, [r7, #4]
 80035c6:	681b      	ldr	r3, [r3, #0]
 80035c8:	699b      	ldr	r3, [r3, #24]
 80035ca:	f403 7340 	and.w	r3, r3, #768	@ 0x300
 80035ce:	2b00      	cmp	r3, #0
 80035d0:	d003      	beq.n	80035da <HAL_TIM_IRQHandler+0x9e>
 80035d2:	6878      	ldr	r0, [r7, #4]
 80035d4:	f000 f972 	bl	80038bc <HAL_TIM_IC_CaptureCallback>
 80035d8:	e005      	b.n	80035e6 <HAL_TIM_IRQHandler+0xaa>
 80035da:	6878      	ldr	r0, [r7, #4]
 80035dc:	f000 f965 	bl	80038aa <HAL_TIM_OC_DelayElapsedCallback>
 80035e0:	6878      	ldr	r0, [r7, #4]
 80035e2:	f000 f974 	bl	80038ce <HAL_TIM_PWM_PulseFinishedCallback>
 80035e6:	687b      	ldr	r3, [r7, #4]
 80035e8:	2200      	movs	r2, #0
 80035ea:	771a      	strb	r2, [r3, #28]
 80035ec:	68bb      	ldr	r3, [r7, #8]
 80035ee:	f003 0308 	and.w	r3, r3, #8
 80035f2:	2b00      	cmp	r3, #0
 80035f4:	d020      	beq.n	8003638 <HAL_TIM_IRQHandler+0xfc>
 80035f6:	68fb      	ldr	r3, [r7, #12]
 80035f8:	f003 0308 	and.w	r3, r3, #8
 80035fc:	2b00      	cmp	r3, #0
 80035fe:	d01b      	beq.n	8003638 <HAL_TIM_IRQHandler+0xfc>
 8003600:	687b      	ldr	r3, [r7, #4]
 8003602:	681b      	ldr	r3, [r3, #0]
 8003604:	f06f 0208 	mvn.w	r2, #8
 8003608:	611a      	str	r2, [r3, #16]
 800360a:	687b      	ldr	r3, [r7, #4]
 800360c:	2204      	movs	r2, #4
 800360e:	771a      	strb	r2, [r3, #28]
 8003610:	687b      	ldr	r3, [r7, #4]
 8003612:	681b      	ldr	r3, [r3, #0]
 8003614:	69db      	ldr	r3, [r3, #28]
 8003616:	f003 0303 	and.w	r3, r3, #3
 800361a:	2b00      	cmp	r3, #0
 800361c:	d003      	beq.n	8003626 <HAL_TIM_IRQHandler+0xea>
 800361e:	6878      	ldr	r0, [r7, #4]
 8003620:	f000 f94c 	bl	80038bc <HAL_TIM_IC_CaptureCallback>
 8003624:	e005      	b.n	8003632 <HAL_TIM_IRQHandler+0xf6>
 8003626:	6878      	ldr	r0, [r7, #4]
 8003628:	f000 f93f 	bl	80038aa <HAL_TIM_OC_DelayElapsedCallback>
 800362c:	6878      	ldr	r0, [r7, #4]
 800362e:	f000 f94e 	bl	80038ce <HAL_TIM_PWM_PulseFinishedCallback>
 8003632:	687b      	ldr	r3, [r7, #4]
 8003634:	2200      	movs	r2, #0
 8003636:	771a      	strb	r2, [r3, #28]
 8003638:	68bb      	ldr	r3, [r7, #8]
 800363a:	f003 0310 	and.w	r3, r3, #16
 800363e:	2b00      	cmp	r3, #0
 8003640:	d020      	beq.n	8003684 <HAL_TIM_IRQHandler+0x148>
 8003642:	68fb      	ldr	r3, [r7, #12]
 8003644:	f003 0310 	and.w	r3, r3, #16
 8003648:	2b00      	cmp	r3, #0
 800364a:	d01b      	beq.n	8003684 <HAL_TIM_IRQHandler+0x148>
 800364c:	687b      	ldr	r3, [r7, #4]
 800364e:	681b      	ldr	r3, [r3, #0]
 8003650:	f06f 0210 	mvn.w	r2, #16
 8003654:	611a      	str	r2, [r3, #16]
 8003656:	687b      	ldr	r3, [r7, #4]
 8003658:	2208      	movs	r2, #8
 800365a:	771a      	strb	r2, [r3, #28]
 800365c:	687b      	ldr	r3, [r7, #4]
 800365e:	681b      	ldr	r3, [r3, #0]
 8003660:	69db      	ldr	r3, [r3, #28]
 8003662:	f403 7340 	and.w	r3, r3, #768	@ 0x300
 8003666:	2b00      	cmp	r3, #0
 8003668:	d003      	beq.n	8003672 <HAL_TIM_IRQHandler+0x136>
 800366a:	6878      	ldr	r0, [r7, #4]
 800366c:	f000 f926 	bl	80038bc <HAL_TIM_IC_CaptureCallback>
 8003670:	e005      	b.n	800367e <HAL_TIM_IRQHandler+0x142>
 8003672:	6878      	ldr	r0, [r7, #4]
 8003674:	f000 f919 	bl	80038aa <HAL_TIM_OC_DelayElapsedCallback>
 8003678:	6878      	ldr	r0, [r7, #4]
 800367a:	f000 f928 	bl	80038ce <HAL_TIM_PWM_PulseFinishedCallback>
 800367e:	687b      	ldr	r3, [r7, #4]
 8003680:	2200      	movs	r2, #0
 8003682:	771a      	strb	r2, [r3, #28]
 8003684:	68bb      	ldr	r3, [r7, #8]
 8003686:	f003 0301 	and.w	r3, r3, #1
 800368a:	2b00      	cmp	r3, #0
 800368c:	d00c      	beq.n	80036a8 <HAL_TIM_IRQHandler+0x16c>
 800368e:	68fb      	ldr	r3, [r7, #12]
 8003690:	f003 0301 	and.w	r3, r3, #1
 8003694:	2b00      	cmp	r3, #0
 8003696:	d007      	beq.n	80036a8 <HAL_TIM_IRQHandler+0x16c>
 8003698:	687b      	ldr	r3, [r7, #4]
 800369a:	681b      	ldr	r3, [r3, #0]
 800369c:	f06f 0201 	mvn.w	r2, #1
 80036a0:	611a      	str	r2, [r3, #16]
 80036a2:	6878      	ldr	r0, [r7, #4]
 80036a4:	f7fd f808 	bl	80006b8 <HAL_TIM_PeriodElapsedCallback>
 80036a8:	68bb      	ldr	r3, [r7, #8]
 80036aa:	f003 0380 	and.w	r3, r3, #128	@ 0x80
 80036ae:	2b00      	cmp	r3, #0
 80036b0:	d00c      	beq.n	80036cc <HAL_TIM_IRQHandler+0x190>
 80036b2:	68fb      	ldr	r3, [r7, #12]
 80036b4:	f003 0380 	and.w	r3, r3, #128	@ 0x80
 80036b8:	2b00      	cmp	r3, #0
 80036ba:	d007      	beq.n	80036cc <HAL_TIM_IRQHandler+0x190>
 80036bc:	687b      	ldr	r3, [r7, #4]
 80036be:	681b      	ldr	r3, [r3, #0]
 80036c0:	f06f 0280 	mvn.w	r2, #128	@ 0x80
 80036c4:	611a      	str	r2, [r3, #16]
 80036c6:	6878      	ldr	r0, [r7, #4]
 80036c8:	f000 fa7f 	bl	8003bca <HAL_TIMEx_BreakCallback>
 80036cc:	68bb      	ldr	r3, [r7, #8]
 80036ce:	f003 0340 	and.w	r3, r3, #64	@ 0x40
 80036d2:	2b00      	cmp	r3, #0
 80036d4:	d00c      	beq.n	80036f0 <HAL_TIM_IRQHandler+0x1b4>
 80036d6:	68fb      	ldr	r3, [r7, #12]
 80036d8:	f003 0340 	and.w	r3, r3, #64	@ 0x40
 80036dc:	2b00      	cmp	r3, #0
 80036de:	d007      	beq.n	80036f0 <HAL_TIM_IRQHandler+0x1b4>
 80036e0:	687b      	ldr	r3, [r7, #4]
 80036e2:	681b      	ldr	r3, [r3, #0]
 80036e4:	f06f 0240 	mvn.w	r2, #64	@ 0x40
 80036e8:	611a      	str	r2, [r3, #16]
 80036ea:	6878      	ldr	r0, [r7, #4]
 80036ec:	f000 f8f8 	bl	80038e0 <HAL_TIM_TriggerCallback>
 80036f0:	68bb      	ldr	r3, [r7, #8]
 80036f2:	f003 0320 	and.w	r3, r3, #32
 80036f6:	2b00      	cmp	r3, #0
 80036f8:	d00c      	beq.n	8003714 <HAL_TIM_IRQHandler+0x1d8>
 80036fa:	68fb      	ldr	r3, [r7, #12]
 80036fc:	f003 0320 	and.w	r3, r3, #32
 8003700:	2b00      	cmp	r3, #0
 8003702:	d007      	beq.n	8003714 <HAL_TIM_IRQHandler+0x1d8>
 8003704:	687b      	ldr	r3, [r7, #4]
 8003706:	681b      	ldr	r3, [r3, #0]
 8003708:	f06f 0220 	mvn.w	r2, #32
 800370c:	611a      	str	r2, [r3, #16]
 800370e:	6878      	ldr	r0, [r7, #4]
 8003710:	f000 fa52 	bl	8003bb8 <HAL_TIMEx_CommutCallback>
 8003714:	bf00      	nop
 8003716:	3710      	adds	r7, #16
 8003718:	46bd      	mov	sp, r7
 800371a:	bd80      	pop	{r7, pc}

0800371c <HAL_TIM_ConfigClockSource>:
 800371c:	b580      	push	{r7, lr}
 800371e:	b084      	sub	sp, #16
 8003720:	af00      	add	r7, sp, #0
 8003722:	6078      	str	r0, [r7, #4]
 8003724:	6039      	str	r1, [r7, #0]
 8003726:	2300      	movs	r3, #0
 8003728:	73fb      	strb	r3, [r7, #15]
 800372a:	687b      	ldr	r3, [r7, #4]
 800372c:	f893 303c 	ldrb.w	r3, [r3, #60]	@ 0x3c
 8003730:	2b01      	cmp	r3, #1
 8003732:	d101      	bne.n	8003738 <HAL_TIM_ConfigClockSource+0x1c>
 8003734:	2302      	movs	r3, #2
 8003736:	e0b4      	b.n	80038a2 <HAL_TIM_ConfigClockSource+0x186>
 8003738:	687b      	ldr	r3, [r7, #4]
 800373a:	2201      	movs	r2, #1
 800373c:	f883 203c 	strb.w	r2, [r3, #60]	@ 0x3c
 8003740:	687b      	ldr	r3, [r7, #4]
 8003742:	2202      	movs	r2, #2
 8003744:	f883 203d 	strb.w	r2, [r3, #61]	@ 0x3d
 8003748:	687b      	ldr	r3, [r7, #4]
 800374a:	681b      	ldr	r3, [r3, #0]
 800374c:	689b      	ldr	r3, [r3, #8]
 800374e:	60bb      	str	r3, [r7, #8]
 8003750:	68bb      	ldr	r3, [r7, #8]
 8003752:	f023 0377 	bic.w	r3, r3, #119	@ 0x77
 8003756:	60bb      	str	r3, [r7, #8]
 8003758:	68bb      	ldr	r3, [r7, #8]
 800375a:	f423 437f 	bic.w	r3, r3, #65280	@ 0xff00
 800375e:	60bb      	str	r3, [r7, #8]
 8003760:	687b      	ldr	r3, [r7, #4]
 8003762:	681b      	ldr	r3, [r3, #0]
 8003764:	68ba      	ldr	r2, [r7, #8]
 8003766:	609a      	str	r2, [r3, #8]
 8003768:	683b      	ldr	r3, [r7, #0]
 800376a:	681b      	ldr	r3, [r3, #0]
 800376c:	f5b3 5f00 	cmp.w	r3, #8192	@ 0x2000
 8003770:	d03e      	beq.n	80037f0 <HAL_TIM_ConfigClockSource+0xd4>
 8003772:	f5b3 5f00 	cmp.w	r3, #8192	@ 0x2000
 8003776:	f200 8087 	bhi.w	8003888 <HAL_TIM_ConfigClockSource+0x16c>
 800377a:	f5b3 5f80 	cmp.w	r3, #4096	@ 0x1000
 800377e:	f000 8086 	beq.w	800388e <HAL_TIM_ConfigClockSource+0x172>
 8003782:	f5b3 5f80 	cmp.w	r3, #4096	@ 0x1000
 8003786:	d87f      	bhi.n	8003888 <HAL_TIM_ConfigClockSource+0x16c>
 8003788:	2b70      	cmp	r3, #112	@ 0x70
 800378a:	d01a      	beq.n	80037c2 <HAL_TIM_ConfigClockSource+0xa6>
 800378c:	2b70      	cmp	r3, #112	@ 0x70
 800378e:	d87b      	bhi.n	8003888 <HAL_TIM_ConfigClockSource+0x16c>
 8003790:	2b60      	cmp	r3, #96	@ 0x60
 8003792:	d050      	beq.n	8003836 <HAL_TIM_ConfigClockSource+0x11a>
 8003794:	2b60      	cmp	r3, #96	@ 0x60
 8003796:	d877      	bhi.n	8003888 <HAL_TIM_ConfigClockSource+0x16c>
 8003798:	2b50      	cmp	r3, #80	@ 0x50
 800379a:	d03c      	beq.n	8003816 <HAL_TIM_ConfigClockSource+0xfa>
 800379c:	2b50      	cmp	r3, #80	@ 0x50
 800379e:	d873      	bhi.n	8003888 <HAL_TIM_ConfigClockSource+0x16c>
 80037a0:	2b40      	cmp	r3, #64	@ 0x40
 80037a2:	d058      	beq.n	8003856 <HAL_TIM_ConfigClockSource+0x13a>
 80037a4:	2b40      	cmp	r3, #64	@ 0x40
 80037a6:	d86f      	bhi.n	8003888 <HAL_TIM_ConfigClockSource+0x16c>
 80037a8:	2b30      	cmp	r3, #48	@ 0x30
 80037aa:	d064      	beq.n	8003876 <HAL_TIM_ConfigClockSource+0x15a>
 80037ac:	2b30      	cmp	r3, #48	@ 0x30
 80037ae:	d86b      	bhi.n	8003888 <HAL_TIM_ConfigClockSource+0x16c>
 80037b0:	2b20      	cmp	r3, #32
 80037b2:	d060      	beq.n	8003876 <HAL_TIM_ConfigClockSource+0x15a>
 80037b4:	2b20      	cmp	r3, #32
 80037b6:	d867      	bhi.n	8003888 <HAL_TIM_ConfigClockSource+0x16c>
 80037b8:	2b00      	cmp	r3, #0
 80037ba:	d05c      	beq.n	8003876 <HAL_TIM_ConfigClockSource+0x15a>
 80037bc:	2b10      	cmp	r3, #16
 80037be:	d05a      	beq.n	8003876 <HAL_TIM_ConfigClockSource+0x15a>
 80037c0:	e062      	b.n	8003888 <HAL_TIM_ConfigClockSource+0x16c>
 80037c2:	687b      	ldr	r3, [r7, #4]
 80037c4:	6818      	ldr	r0, [r3, #0]
 80037c6:	683b      	ldr	r3, [r7, #0]
 80037c8:	6899      	ldr	r1, [r3, #8]
 80037ca:	683b      	ldr	r3, [r7, #0]
 80037cc:	685a      	ldr	r2, [r3, #4]
 80037ce:	683b      	ldr	r3, [r7, #0]
 80037d0:	68db      	ldr	r3, [r3, #12]
 80037d2:	f000 f974 	bl	8003abe <TIM_ETR_SetConfig>
 80037d6:	687b      	ldr	r3, [r7, #4]
 80037d8:	681b      	ldr	r3, [r3, #0]
 80037da:	689b      	ldr	r3, [r3, #8]
 80037dc:	60bb      	str	r3, [r7, #8]
 80037de:	68bb      	ldr	r3, [r7, #8]
 80037e0:	f043 0377 	orr.w	r3, r3, #119	@ 0x77
 80037e4:	60bb      	str	r3, [r7, #8]
 80037e6:	687b      	ldr	r3, [r7, #4]
 80037e8:	681b      	ldr	r3, [r3, #0]
 80037ea:	68ba      	ldr	r2, [r7, #8]
 80037ec:	609a      	str	r2, [r3, #8]
 80037ee:	e04f      	b.n	8003890 <HAL_TIM_ConfigClockSource+0x174>
 80037f0:	687b      	ldr	r3, [r7, #4]
 80037f2:	6818      	ldr	r0, [r3, #0]
 80037f4:	683b      	ldr	r3, [r7, #0]
 80037f6:	6899      	ldr	r1, [r3, #8]
 80037f8:	683b      	ldr	r3, [r7, #0]
 80037fa:	685a      	ldr	r2, [r3, #4]
 80037fc:	683b      	ldr	r3, [r7, #0]
 80037fe:	68db      	ldr	r3, [r3, #12]
 8003800:	f000 f95d 	bl	8003abe <TIM_ETR_SetConfig>
 8003804:	687b      	ldr	r3, [r7, #4]
 8003806:	681b      	ldr	r3, [r3, #0]
 8003808:	689a      	ldr	r2, [r3, #8]
 800380a:	687b      	ldr	r3, [r7, #4]
 800380c:	681b      	ldr	r3, [r3, #0]
 800380e:	f442 4280 	orr.w	r2, r2, #16384	@ 0x4000
 8003812:	609a      	str	r2, [r3, #8]
 8003814:	e03c      	b.n	8003890 <HAL_TIM_ConfigClockSource+0x174>
 8003816:	687b      	ldr	r3, [r7, #4]
 8003818:	6818      	ldr	r0, [r3, #0]
 800381a:	683b      	ldr	r3, [r7, #0]
 800381c:	6859      	ldr	r1, [r3, #4]
 800381e:	683b      	ldr	r3, [r7, #0]
 8003820:	68db      	ldr	r3, [r3, #12]
 8003822:	461a      	mov	r2, r3
 8003824:	f000 f8d4 	bl	80039d0 <TIM_TI1_ConfigInputStage>
 8003828:	687b      	ldr	r3, [r7, #4]
 800382a:	681b      	ldr	r3, [r3, #0]
 800382c:	2150      	movs	r1, #80	@ 0x50
 800382e:	4618      	mov	r0, r3
 8003830:	f000 f92b 	bl	8003a8a <TIM_ITRx_SetConfig>
 8003834:	e02c      	b.n	8003890 <HAL_TIM_ConfigClockSource+0x174>
 8003836:	687b      	ldr	r3, [r7, #4]
 8003838:	6818      	ldr	r0, [r3, #0]
 800383a:	683b      	ldr	r3, [r7, #0]
 800383c:	6859      	ldr	r1, [r3, #4]
 800383e:	683b      	ldr	r3, [r7, #0]
 8003840:	68db      	ldr	r3, [r3, #12]
 8003842:	461a      	mov	r2, r3
 8003844:	f000 f8f2 	bl	8003a2c <TIM_TI2_ConfigInputStage>
 8003848:	687b      	ldr	r3, [r7, #4]
 800384a:	681b      	ldr	r3, [r3, #0]
 800384c:	2160      	movs	r1, #96	@ 0x60
 800384e:	4618      	mov	r0, r3
 8003850:	f000 f91b 	bl	8003a8a <TIM_ITRx_SetConfig>
 8003854:	e01c      	b.n	8003890 <HAL_TIM_ConfigClockSource+0x174>
 8003856:	687b      	ldr	r3, [r7, #4]
 8003858:	6818      	ldr	r0, [r3, #0]
 800385a:	683b      	ldr	r3, [r7, #0]
 800385c:	6859      	ldr	r1, [r3, #4]
 800385e:	683b      	ldr	r3, [r7, #0]
 8003860:	68db      	ldr	r3, [r3, #12]
 8003862:	461a      	mov	r2, r3
 8003864:	f000 f8b4 	bl	80039d0 <TIM_TI1_ConfigInputStage>
 8003868:	687b      	ldr	r3, [r7, #4]
 800386a:	681b      	ldr	r3, [r3, #0]
 800386c:	2140      	movs	r1, #64	@ 0x40
 800386e:	4618      	mov	r0, r3
 8003870:	f000 f90b 	bl	8003a8a <TIM_ITRx_SetConfig>
 8003874:	e00c      	b.n	8003890 <HAL_TIM_ConfigClockSource+0x174>
 8003876:	687b      	ldr	r3, [r7, #4]
 8003878:	681a      	ldr	r2, [r3, #0]
 800387a:	683b      	ldr	r3, [r7, #0]
 800387c:	681b      	ldr	r3, [r3, #0]
 800387e:	4619      	mov	r1, r3
 8003880:	4610      	mov	r0, r2
 8003882:	f000 f902 	bl	8003a8a <TIM_ITRx_SetConfig>
 8003886:	e003      	b.n	8003890 <HAL_TIM_ConfigClockSource+0x174>
 8003888:	2301      	movs	r3, #1
 800388a:	73fb      	strb	r3, [r7, #15]
 800388c:	e000      	b.n	8003890 <HAL_TIM_ConfigClockSource+0x174>
 800388e:	bf00      	nop
 8003890:	687b      	ldr	r3, [r7, #4]
 8003892:	2201      	movs	r2, #1
 8003894:	f883 203d 	strb.w	r2, [r3, #61]	@ 0x3d
 8003898:	687b      	ldr	r3, [r7, #4]
 800389a:	2200      	movs	r2, #0
 800389c:	f883 203c 	strb.w	r2, [r3, #60]	@ 0x3c
 80038a0:	7bfb      	ldrb	r3, [r7, #15]
 80038a2:	4618      	mov	r0, r3
 80038a4:	3710      	adds	r7, #16
 80038a6:	46bd      	mov	sp, r7
 80038a8:	bd80      	pop	{r7, pc}

080038aa <HAL_TIM_OC_DelayElapsedCallback>:
 80038aa:	b480      	push	{r7}
 80038ac:	b083      	sub	sp, #12
 80038ae:	af00      	add	r7, sp, #0
 80038b0:	6078      	str	r0, [r7, #4]
 80038b2:	bf00      	nop
 80038b4:	370c      	adds	r7, #12
 80038b6:	46bd      	mov	sp, r7
 80038b8:	bc80      	pop	{r7}
 80038ba:	4770      	bx	lr

080038bc <HAL_TIM_IC_CaptureCallback>:
 80038bc:	b480      	push	{r7}
 80038be:	b083      	sub	sp, #12
 80038c0:	af00      	add	r7, sp, #0
 80038c2:	6078      	str	r0, [r7, #4]
 80038c4:	bf00      	nop
 80038c6:	370c      	adds	r7, #12
 80038c8:	46bd      	mov	sp, r7
 80038ca:	bc80      	pop	{r7}
 80038cc:	4770      	bx	lr

080038ce <HAL_TIM_PWM_PulseFinishedCallback>:
 80038ce:	b480      	push	{r7}
 80038d0:	b083      	sub	sp, #12
 80038d2:	af00      	add	r7, sp, #0
 80038d4:	6078      	str	r0, [r7, #4]
 80038d6:	bf00      	nop
 80038d8:	370c      	adds	r7, #12
 80038da:	46bd      	mov	sp, r7
 80038dc:	bc80      	pop	{r7}
 80038de:	4770      	bx	lr

080038e0 <HAL_TIM_TriggerCallback>:
 80038e0:	b480      	push	{r7}
 80038e2:	b083      	sub	sp, #12
 80038e4:	af00      	add	r7, sp, #0
 80038e6:	6078      	str	r0, [r7, #4]
 80038e8:	bf00      	nop
 80038ea:	370c      	adds	r7, #12
 80038ec:	46bd      	mov	sp, r7
 80038ee:	bc80      	pop	{r7}
 80038f0:	4770      	bx	lr
	...

080038f4 <TIM_Base_SetConfig>:
 80038f4:	b480      	push	{r7}
 80038f6:	b085      	sub	sp, #20
 80038f8:	af00      	add	r7, sp, #0
 80038fa:	6078      	str	r0, [r7, #4]
 80038fc:	6039      	str	r1, [r7, #0]
 80038fe:	687b      	ldr	r3, [r7, #4]
 8003900:	681b      	ldr	r3, [r3, #0]
 8003902:	60fb      	str	r3, [r7, #12]
 8003904:	687b      	ldr	r3, [r7, #4]
 8003906:	4a2f      	ldr	r2, [pc, #188]	@ (80039c4 <TIM_Base_SetConfig+0xd0>)
 8003908:	4293      	cmp	r3, r2
 800390a:	d00b      	beq.n	8003924 <TIM_Base_SetConfig+0x30>
 800390c:	687b      	ldr	r3, [r7, #4]
 800390e:	f1b3 4f80 	cmp.w	r3, #1073741824	@ 0x40000000
 8003912:	d007      	beq.n	8003924 <TIM_Base_SetConfig+0x30>
 8003914:	687b      	ldr	r3, [r7, #4]
 8003916:	4a2c      	ldr	r2, [pc, #176]	@ (80039c8 <TIM_Base_SetConfig+0xd4>)
 8003918:	4293      	cmp	r3, r2
 800391a:	d003      	beq.n	8003924 <TIM_Base_SetConfig+0x30>
 800391c:	687b      	ldr	r3, [r7, #4]
 800391e:	4a2b      	ldr	r2, [pc, #172]	@ (80039cc <TIM_Base_SetConfig+0xd8>)
 8003920:	4293      	cmp	r3, r2
 8003922:	d108      	bne.n	8003936 <TIM_Base_SetConfig+0x42>
 8003924:	68fb      	ldr	r3, [r7, #12]
 8003926:	f023 0370 	bic.w	r3, r3, #112	@ 0x70
 800392a:	60fb      	str	r3, [r7, #12]
 800392c:	683b      	ldr	r3, [r7, #0]
 800392e:	685b      	ldr	r3, [r3, #4]
 8003930:	68fa      	ldr	r2, [r7, #12]
 8003932:	4313      	orrs	r3, r2
 8003934:	60fb      	str	r3, [r7, #12]
 8003936:	687b      	ldr	r3, [r7, #4]
 8003938:	4a22      	ldr	r2, [pc, #136]	@ (80039c4 <TIM_Base_SetConfig+0xd0>)
 800393a:	4293      	cmp	r3, r2
 800393c:	d00b      	beq.n	8003956 <TIM_Base_SetConfig+0x62>
 800393e:	687b      	ldr	r3, [r7, #4]
 8003940:	f1b3 4f80 	cmp.w	r3, #1073741824	@ 0x40000000
 8003944:	d007      	beq.n	8003956 <TIM_Base_SetConfig+0x62>
 8003946:	687b      	ldr	r3, [r7, #4]
 8003948:	4a1f      	ldr	r2, [pc, #124]	@ (80039c8 <TIM_Base_SetConfig+0xd4>)
 800394a:	4293      	cmp	r3, r2
 800394c:	d003      	beq.n	8003956 <TIM_Base_SetConfig+0x62>
 800394e:	687b      	ldr	r3, [r7, #4]
 8003950:	4a1e      	ldr	r2, [pc, #120]	@ (80039cc <TIM_Base_SetConfig+0xd8>)
 8003952:	4293      	cmp	r3, r2
 8003954:	d108      	bne.n	8003968 <TIM_Base_SetConfig+0x74>
 8003956:	68fb      	ldr	r3, [r7, #12]
 8003958:	f423 7340 	bic.w	r3, r3, #768	@ 0x300
 800395c:	60fb      	str	r3, [r7, #12]
 800395e:	683b      	ldr	r3, [r7, #0]
 8003960:	68db      	ldr	r3, [r3, #12]
 8003962:	68fa      	ldr	r2, [r7, #12]
 8003964:	4313      	orrs	r3, r2
 8003966:	60fb      	str	r3, [r7, #12]
 8003968:	68fb      	ldr	r3, [r7, #12]
 800396a:	f023 0280 	bic.w	r2, r3, #128	@ 0x80
 800396e:	683b      	ldr	r3, [r7, #0]
 8003970:	695b      	ldr	r3, [r3, #20]
 8003972:	4313      	orrs	r3, r2
 8003974:	60fb      	str	r3, [r7, #12]
 8003976:	687b      	ldr	r3, [r7, #4]
 8003978:	68fa      	ldr	r2, [r7, #12]
 800397a:	601a      	str	r2, [r3, #0]
 800397c:	683b      	ldr	r3, [r7, #0]
 800397e:	689a      	ldr	r2, [r3, #8]
 8003980:	687b      	ldr	r3, [r7, #4]
 8003982:	62da      	str	r2, [r3, #44]	@ 0x2c
 8003984:	683b      	ldr	r3, [r7, #0]
 8003986:	681a      	ldr	r2, [r3, #0]
 8003988:	687b      	ldr	r3, [r7, #4]
 800398a:	629a      	str	r2, [r3, #40]	@ 0x28
 800398c:	687b      	ldr	r3, [r7, #4]
 800398e:	4a0d      	ldr	r2, [pc, #52]	@ (80039c4 <TIM_Base_SetConfig+0xd0>)
 8003990:	4293      	cmp	r3, r2
 8003992:	d103      	bne.n	800399c <TIM_Base_SetConfig+0xa8>
 8003994:	683b      	ldr	r3, [r7, #0]
 8003996:	691a      	ldr	r2, [r3, #16]
 8003998:	687b      	ldr	r3, [r7, #4]
 800399a:	631a      	str	r2, [r3, #48]	@ 0x30
 800399c:	687b      	ldr	r3, [r7, #4]
 800399e:	2201      	movs	r2, #1
 80039a0:	615a      	str	r2, [r3, #20]
 80039a2:	687b      	ldr	r3, [r7, #4]
 80039a4:	691b      	ldr	r3, [r3, #16]
 80039a6:	f003 0301 	and.w	r3, r3, #1
 80039aa:	2b00      	cmp	r3, #0
 80039ac:	d005      	beq.n	80039ba <TIM_Base_SetConfig+0xc6>
 80039ae:	687b      	ldr	r3, [r7, #4]
 80039b0:	691b      	ldr	r3, [r3, #16]
 80039b2:	f023 0201 	bic.w	r2, r3, #1
 80039b6:	687b      	ldr	r3, [r7, #4]
 80039b8:	611a      	str	r2, [r3, #16]
 80039ba:	bf00      	nop
 80039bc:	3714      	adds	r7, #20
 80039be:	46bd      	mov	sp, r7
 80039c0:	bc80      	pop	{r7}
 80039c2:	4770      	bx	lr
 80039c4:	40012c00 	.word	0x40012c00
 80039c8:	40000400 	.word	0x40000400
 80039cc:	40000800 	.word	0x40000800

080039d0 <TIM_TI1_ConfigInputStage>:
 80039d0:	b480      	push	{r7}
 80039d2:	b087      	sub	sp, #28
 80039d4:	af00      	add	r7, sp, #0
 80039d6:	60f8      	str	r0, [r7, #12]
 80039d8:	60b9      	str	r1, [r7, #8]
 80039da:	607a      	str	r2, [r7, #4]
 80039dc:	68fb      	ldr	r3, [r7, #12]
 80039de:	6a1b      	ldr	r3, [r3, #32]
 80039e0:	617b      	str	r3, [r7, #20]
 80039e2:	68fb      	ldr	r3, [r7, #12]
 80039e4:	6a1b      	ldr	r3, [r3, #32]
 80039e6:	f023 0201 	bic.w	r2, r3, #1
 80039ea:	68fb      	ldr	r3, [r7, #12]
 80039ec:	621a      	str	r2, [r3, #32]
 80039ee:	68fb      	ldr	r3, [r7, #12]
 80039f0:	699b      	ldr	r3, [r3, #24]
 80039f2:	613b      	str	r3, [r7, #16]
 80039f4:	693b      	ldr	r3, [r7, #16]
 80039f6:	f023 03f0 	bic.w	r3, r3, #240	@ 0xf0
 80039fa:	613b      	str	r3, [r7, #16]
 80039fc:	687b      	ldr	r3, [r7, #4]
 80039fe:	011b      	lsls	r3, r3, #4
 8003a00:	693a      	ldr	r2, [r7, #16]
 8003a02:	4313      	orrs	r3, r2
 8003a04:	613b      	str	r3, [r7, #16]
 8003a06:	697b      	ldr	r3, [r7, #20]
 8003a08:	f023 030a 	bic.w	r3, r3, #10
 8003a0c:	617b      	str	r3, [r7, #20]
 8003a0e:	697a      	ldr	r2, [r7, #20]
 8003a10:	68bb      	ldr	r3, [r7, #8]
 8003a12:	4313      	orrs	r3, r2
 8003a14:	617b      	str	r3, [r7, #20]
 8003a16:	68fb      	ldr	r3, [r7, #12]
 8003a18:	693a      	ldr	r2, [r7, #16]
 8003a1a:	619a      	str	r2, [r3, #24]
 8003a1c:	68fb      	ldr	r3, [r7, #12]
 8003a1e:	697a      	ldr	r2, [r7, #20]
 8003a20:	621a      	str	r2, [r3, #32]
 8003a22:	bf00      	nop
 8003a24:	371c      	adds	r7, #28
 8003a26:	46bd      	mov	sp, r7
 8003a28:	bc80      	pop	{r7}
 8003a2a:	4770      	bx	lr

08003a2c <TIM_TI2_ConfigInputStage>:
 8003a2c:	b480      	push	{r7}
 8003a2e:	b087      	sub	sp, #28
 8003a30:	af00      	add	r7, sp, #0
 8003a32:	60f8      	str	r0, [r7, #12]
 8003a34:	60b9      	str	r1, [r7, #8]
 8003a36:	607a      	str	r2, [r7, #4]
 8003a38:	68fb      	ldr	r3, [r7, #12]
 8003a3a:	6a1b      	ldr	r3, [r3, #32]
 8003a3c:	617b      	str	r3, [r7, #20]
 8003a3e:	68fb      	ldr	r3, [r7, #12]
 8003a40:	6a1b      	ldr	r3, [r3, #32]
 8003a42:	f023 0210 	bic.w	r2, r3, #16
 8003a46:	68fb      	ldr	r3, [r7, #12]
 8003a48:	621a      	str	r2, [r3, #32]
 8003a4a:	68fb      	ldr	r3, [r7, #12]
 8003a4c:	699b      	ldr	r3, [r3, #24]
 8003a4e:	613b      	str	r3, [r7, #16]
 8003a50:	693b      	ldr	r3, [r7, #16]
 8003a52:	f423 4370 	bic.w	r3, r3, #61440	@ 0xf000
 8003a56:	613b      	str	r3, [r7, #16]
 8003a58:	687b      	ldr	r3, [r7, #4]
 8003a5a:	031b      	lsls	r3, r3, #12
 8003a5c:	693a      	ldr	r2, [r7, #16]
 8003a5e:	4313      	orrs	r3, r2
 8003a60:	613b      	str	r3, [r7, #16]
 8003a62:	697b      	ldr	r3, [r7, #20]
 8003a64:	f023 03a0 	bic.w	r3, r3, #160	@ 0xa0
 8003a68:	617b      	str	r3, [r7, #20]
 8003a6a:	68bb      	ldr	r3, [r7, #8]
 8003a6c:	011b      	lsls	r3, r3, #4
 8003a6e:	697a      	ldr	r2, [r7, #20]
 8003a70:	4313      	orrs	r3, r2
 8003a72:	617b      	str	r3, [r7, #20]
 8003a74:	68fb      	ldr	r3, [r7, #12]
 8003a76:	693a      	ldr	r2, [r7, #16]
 8003a78:	619a      	str	r2, [r3, #24]
 8003a7a:	68fb      	ldr	r3, [r7, #12]
 8003a7c:	697a      	ldr	r2, [r7, #20]
 8003a7e:	621a      	str	r2, [r3, #32]
 8003a80:	bf00      	nop
 8003a82:	371c      	adds	r7, #28
 8003a84:	46bd      	mov	sp, r7
 8003a86:	bc80      	pop	{r7}
 8003a88:	4770      	bx	lr

08003a8a <TIM_ITRx_SetConfig>:
 8003a8a:	b480      	push	{r7}
 8003a8c:	b085      	sub	sp, #20
 8003a8e:	af00      	add	r7, sp, #0
 8003a90:	6078      	str	r0, [r7, #4]
 8003a92:	6039      	str	r1, [r7, #0]
 8003a94:	687b      	ldr	r3, [r7, #4]
 8003a96:	689b      	ldr	r3, [r3, #8]
 8003a98:	60fb      	str	r3, [r7, #12]
 8003a9a:	68fb      	ldr	r3, [r7, #12]
 8003a9c:	f023 0370 	bic.w	r3, r3, #112	@ 0x70
 8003aa0:	60fb      	str	r3, [r7, #12]
 8003aa2:	683a      	ldr	r2, [r7, #0]
 8003aa4:	68fb      	ldr	r3, [r7, #12]
 8003aa6:	4313      	orrs	r3, r2
 8003aa8:	f043 0307 	orr.w	r3, r3, #7
 8003aac:	60fb      	str	r3, [r7, #12]
 8003aae:	687b      	ldr	r3, [r7, #4]
 8003ab0:	68fa      	ldr	r2, [r7, #12]
 8003ab2:	609a      	str	r2, [r3, #8]
 8003ab4:	bf00      	nop
 8003ab6:	3714      	adds	r7, #20
 8003ab8:	46bd      	mov	sp, r7
 8003aba:	bc80      	pop	{r7}
 8003abc:	4770      	bx	lr

08003abe <TIM_ETR_SetConfig>:
 8003abe:	b480      	push	{r7}
 8003ac0:	b087      	sub	sp, #28
 8003ac2:	af00      	add	r7, sp, #0
 8003ac4:	60f8      	str	r0, [r7, #12]
 8003ac6:	60b9      	str	r1, [r7, #8]
 8003ac8:	607a      	str	r2, [r7, #4]
 8003aca:	603b      	str	r3, [r7, #0]
 8003acc:	68fb      	ldr	r3, [r7, #12]
 8003ace:	689b      	ldr	r3, [r3, #8]
 8003ad0:	617b      	str	r3, [r7, #20]
 8003ad2:	697b      	ldr	r3, [r7, #20]
 8003ad4:	f423 437f 	bic.w	r3, r3, #65280	@ 0xff00
 8003ad8:	617b      	str	r3, [r7, #20]
 8003ada:	683b      	ldr	r3, [r7, #0]
 8003adc:	021a      	lsls	r2, r3, #8
 8003ade:	687b      	ldr	r3, [r7, #4]
 8003ae0:	431a      	orrs	r2, r3
 8003ae2:	68bb      	ldr	r3, [r7, #8]
 8003ae4:	4313      	orrs	r3, r2
 8003ae6:	697a      	ldr	r2, [r7, #20]
 8003ae8:	4313      	orrs	r3, r2
 8003aea:	617b      	str	r3, [r7, #20]
 8003aec:	68fb      	ldr	r3, [r7, #12]
 8003aee:	697a      	ldr	r2, [r7, #20]
 8003af0:	609a      	str	r2, [r3, #8]
 8003af2:	bf00      	nop
 8003af4:	371c      	adds	r7, #28
 8003af6:	46bd      	mov	sp, r7
 8003af8:	bc80      	pop	{r7}
 8003afa:	4770      	bx	lr

08003afc <HAL_TIMEx_MasterConfigSynchronization>:
 8003afc:	b480      	push	{r7}
 8003afe:	b085      	sub	sp, #20
 8003b00:	af00      	add	r7, sp, #0
 8003b02:	6078      	str	r0, [r7, #4]
 8003b04:	6039      	str	r1, [r7, #0]
 8003b06:	687b      	ldr	r3, [r7, #4]
 8003b08:	f893 303c 	ldrb.w	r3, [r3, #60]	@ 0x3c
 8003b0c:	2b01      	cmp	r3, #1
 8003b0e:	d101      	bne.n	8003b14 <HAL_TIMEx_MasterConfigSynchronization+0x18>
 8003b10:	2302      	movs	r3, #2
 8003b12:	e046      	b.n	8003ba2 <HAL_TIMEx_MasterConfigSynchronization+0xa6>
 8003b14:	687b      	ldr	r3, [r7, #4]
 8003b16:	2201      	movs	r2, #1
 8003b18:	f883 203c 	strb.w	r2, [r3, #60]	@ 0x3c
 8003b1c:	687b      	ldr	r3, [r7, #4]
 8003b1e:	2202      	movs	r2, #2
 8003b20:	f883 203d 	strb.w	r2, [r3, #61]	@ 0x3d
 8003b24:	687b      	ldr	r3, [r7, #4]
 8003b26:	681b      	ldr	r3, [r3, #0]
 8003b28:	685b      	ldr	r3, [r3, #4]
 8003b2a:	60fb      	str	r3, [r7, #12]
 8003b2c:	687b      	ldr	r3, [r7, #4]
 8003b2e:	681b      	ldr	r3, [r3, #0]
 8003b30:	689b      	ldr	r3, [r3, #8]
 8003b32:	60bb      	str	r3, [r7, #8]
 8003b34:	68fb      	ldr	r3, [r7, #12]
 8003b36:	f023 0370 	bic.w	r3, r3, #112	@ 0x70
 8003b3a:	60fb      	str	r3, [r7, #12]
 8003b3c:	683b      	ldr	r3, [r7, #0]
 8003b3e:	681b      	ldr	r3, [r3, #0]
 8003b40:	68fa      	ldr	r2, [r7, #12]
 8003b42:	4313      	orrs	r3, r2
 8003b44:	60fb      	str	r3, [r7, #12]
 8003b46:	687b      	ldr	r3, [r7, #4]
 8003b48:	681b      	ldr	r3, [r3, #0]
 8003b4a:	68fa      	ldr	r2, [r7, #12]
 8003b4c:	605a      	str	r2, [r3, #4]
 8003b4e:	687b      	ldr	r3, [r7, #4]
 8003b50:	681b      	ldr	r3, [r3, #0]
 8003b52:	4a16      	ldr	r2, [pc, #88]	@ (8003bac <HAL_TIMEx_MasterConfigSynchronization+0xb0>)
 8003b54:	4293      	cmp	r3, r2
 8003b56:	d00e      	beq.n	8003b76 <HAL_TIMEx_MasterConfigSynchronization+0x7a>
 8003b58:	687b      	ldr	r3, [r7, #4]
 8003b5a:	681b      	ldr	r3, [r3, #0]
 8003b5c:	f1b3 4f80 	cmp.w	r3, #1073741824	@ 0x40000000
 8003b60:	d009      	beq.n	8003b76 <HAL_TIMEx_MasterConfigSynchronization+0x7a>
 8003b62:	687b      	ldr	r3, [r7, #4]
 8003b64:	681b      	ldr	r3, [r3, #0]
 8003b66:	4a12      	ldr	r2, [pc, #72]	@ (8003bb0 <HAL_TIMEx_MasterConfigSynchronization+0xb4>)
 8003b68:	4293      	cmp	r3, r2
 8003b6a:	d004      	beq.n	8003b76 <HAL_TIMEx_MasterConfigSynchronization+0x7a>
 8003b6c:	687b      	ldr	r3, [r7, #4]
 8003b6e:	681b      	ldr	r3, [r3, #0]
 8003b70:	4a10      	ldr	r2, [pc, #64]	@ (8003bb4 <HAL_TIMEx_MasterConfigSynchronization+0xb8>)
 8003b72:	4293      	cmp	r3, r2
 8003b74:	d10c      	bne.n	8003b90 <HAL_TIMEx_MasterConfigSynchronization+0x94>
 8003b76:	68bb      	ldr	r3, [r7, #8]
 8003b78:	f023 0380 	bic.w	r3, r3, #128	@ 0x80
 8003b7c:	60bb      	str	r3, [r7, #8]
 8003b7e:	683b      	ldr	r3, [r7, #0]
 8003b80:	685b      	ldr	r3, [r3, #4]
 8003b82:	68ba      	ldr	r2, [r7, #8]
 8003b84:	4313      	orrs	r3, r2
 8003b86:	60bb      	str	r3, [r7, #8]
 8003b88:	687b      	ldr	r3, [r7, #4]
 8003b8a:	681b      	ldr	r3, [r3, #0]
 8003b8c:	68ba      	ldr	r2, [r7, #8]
 8003b8e:	609a      	str	r2, [r3, #8]
 8003b90:	687b      	ldr	r3, [r7, #4]
 8003b92:	2201      	movs	r2, #1
 8003b94:	f883 203d 	strb.w	r2, [r3, #61]	@ 0x3d
 8003b98:	687b      	ldr	r3, [r7, #4]
 8003b9a:	2200      	movs	r2, #0
 8003b9c:	f883 203c 	strb.w	r2, [r3, #60]	@ 0x3c
 8003ba0:	2300      	movs	r3, #0
 8003ba2:	4618      	mov	r0, r3
 8003ba4:	3714      	adds	r7, #20
 8003ba6:	46bd      	mov	sp, r7
 8003ba8:	bc80      	pop	{r7}
 8003baa:	4770      	bx	lr
 8003bac:	40012c00 	.word	0x40012c00
 8003bb0:	40000400 	.word	0x40000400
 8003bb4:	40000800 	.word	0x40000800

08003bb8 <HAL_TIMEx_CommutCallback>:
 8003bb8:	b480      	push	{r7}
 8003bba:	b083      	sub	sp, #12
 8003bbc:	af00      	add	r7, sp, #0
 8003bbe:	6078      	str	r0, [r7, #4]
 8003bc0:	bf00      	nop
 8003bc2:	370c      	adds	r7, #12
 8003bc4:	46bd      	mov	sp, r7
 8003bc6:	bc80      	pop	{r7}
 8003bc8:	4770      	bx	lr

08003bca <HAL_TIMEx_BreakCallback>:
 8003bca:	b480      	push	{r7}
 8003bcc:	b083      	sub	sp, #12
 8003bce:	af00      	add	r7, sp, #0
 8003bd0:	6078      	str	r0, [r7, #4]
 8003bd2:	bf00      	nop
 8003bd4:	370c      	adds	r7, #12
 8003bd6:	46bd      	mov	sp, r7
 8003bd8:	bc80      	pop	{r7}
 8003bda:	4770      	bx	lr

08003bdc <HAL_UART_Init>:
 8003bdc:	b580      	push	{r7, lr}
 8003bde:	b082      	sub	sp, #8
 8003be0:	af00      	add	r7, sp, #0
 8003be2:	6078      	str	r0, [r7, #4]
 8003be4:	687b      	ldr	r3, [r7, #4]
 8003be6:	2b00      	cmp	r3, #0
 8003be8:	d101      	bne.n	8003bee <HAL_UART_Init+0x12>
 8003bea:	2301      	movs	r3, #1
 8003bec:	e042      	b.n	8003c74 <HAL_UART_Init+0x98>
 8003bee:	687b      	ldr	r3, [r7, #4]
 8003bf0:	f893 3041 	ldrb.w	r3, [r3, #65]	@ 0x41
 8003bf4:	b2db      	uxtb	r3, r3
 8003bf6:	2b00      	cmp	r3, #0
 8003bf8:	d106      	bne.n	8003c08 <HAL_UART_Init+0x2c>
 8003bfa:	687b      	ldr	r3, [r7, #4]
 8003bfc:	2200      	movs	r2, #0
 8003bfe:	f883 2040 	strb.w	r2, [r3, #64]	@ 0x40
 8003c02:	6878      	ldr	r0, [r7, #4]
 8003c04:	f7fd fb38 	bl	8001278 <HAL_UART_MspInit>
 8003c08:	687b      	ldr	r3, [r7, #4]
 8003c0a:	2224      	movs	r2, #36	@ 0x24
 8003c0c:	f883 2041 	strb.w	r2, [r3, #65]	@ 0x41
 8003c10:	687b      	ldr	r3, [r7, #4]
 8003c12:	681b      	ldr	r3, [r3, #0]
 8003c14:	68da      	ldr	r2, [r3, #12]
 8003c16:	687b      	ldr	r3, [r7, #4]
 8003c18:	681b      	ldr	r3, [r3, #0]
 8003c1a:	f422 5200 	bic.w	r2, r2, #8192	@ 0x2000
 8003c1e:	60da      	str	r2, [r3, #12]
 8003c20:	6878      	ldr	r0, [r7, #4]
 8003c22:	f000 ff79 	bl	8004b18 <UART_SetConfig>
 8003c26:	687b      	ldr	r3, [r7, #4]
 8003c28:	681b      	ldr	r3, [r3, #0]
 8003c2a:	691a      	ldr	r2, [r3, #16]
 8003c2c:	687b      	ldr	r3, [r7, #4]
 8003c2e:	681b      	ldr	r3, [r3, #0]
 8003c30:	f422 4290 	bic.w	r2, r2, #18432	@ 0x4800
 8003c34:	611a      	str	r2, [r3, #16]
 8003c36:	687b      	ldr	r3, [r7, #4]
 8003c38:	681b      	ldr	r3, [r3, #0]
 8003c3a:	695a      	ldr	r2, [r3, #20]
 8003c3c:	687b      	ldr	r3, [r7, #4]
 8003c3e:	681b      	ldr	r3, [r3, #0]
 8003c40:	f022 022a 	bic.w	r2, r2, #42	@ 0x2a
 8003c44:	615a      	str	r2, [r3, #20]
 8003c46:	687b      	ldr	r3, [r7, #4]
 8003c48:	681b      	ldr	r3, [r3, #0]
 8003c4a:	68da      	ldr	r2, [r3, #12]
 8003c4c:	687b      	ldr	r3, [r7, #4]
 8003c4e:	681b      	ldr	r3, [r3, #0]
 8003c50:	f442 5200 	orr.w	r2, r2, #8192	@ 0x2000
 8003c54:	60da      	str	r2, [r3, #12]
 8003c56:	687b      	ldr	r3, [r7, #4]
 8003c58:	2200      	movs	r2, #0
 8003c5a:	645a      	str	r2, [r3, #68]	@ 0x44
 8003c5c:	687b      	ldr	r3, [r7, #4]
 8003c5e:	2220      	movs	r2, #32
 8003c60:	f883 2041 	strb.w	r2, [r3, #65]	@ 0x41
 8003c64:	687b      	ldr	r3, [r7, #4]
 8003c66:	2220      	movs	r2, #32
 8003c68:	f883 2042 	strb.w	r2, [r3, #66]	@ 0x42
 8003c6c:	687b      	ldr	r3, [r7, #4]
 8003c6e:	2200      	movs	r2, #0
 8003c70:	635a      	str	r2, [r3, #52]	@ 0x34
 8003c72:	2300      	movs	r3, #0
 8003c74:	4618      	mov	r0, r3
 8003c76:	3708      	adds	r7, #8
 8003c78:	46bd      	mov	sp, r7
 8003c7a:	bd80      	pop	{r7, pc}

08003c7c <HAL_UART_Transmit>:
 8003c7c:	b580      	push	{r7, lr}
 8003c7e:	b08a      	sub	sp, #40	@ 0x28
 8003c80:	af02      	add	r7, sp, #8
 8003c82:	60f8      	str	r0, [r7, #12]
 8003c84:	60b9      	str	r1, [r7, #8]
 8003c86:	603b      	str	r3, [r7, #0]
 8003c88:	4613      	mov	r3, r2
 8003c8a:	80fb      	strh	r3, [r7, #6]
 8003c8c:	2300      	movs	r3, #0
 8003c8e:	617b      	str	r3, [r7, #20]
 8003c90:	68fb      	ldr	r3, [r7, #12]
 8003c92:	f893 3041 	ldrb.w	r3, [r3, #65]	@ 0x41
 8003c96:	b2db      	uxtb	r3, r3
 8003c98:	2b20      	cmp	r3, #32
 8003c9a:	d175      	bne.n	8003d88 <HAL_UART_Transmit+0x10c>
 8003c9c:	68bb      	ldr	r3, [r7, #8]
 8003c9e:	2b00      	cmp	r3, #0
 8003ca0:	d002      	beq.n	8003ca8 <HAL_UART_Transmit+0x2c>
 8003ca2:	88fb      	ldrh	r3, [r7, #6]
 8003ca4:	2b00      	cmp	r3, #0
 8003ca6:	d101      	bne.n	8003cac <HAL_UART_Transmit+0x30>
 8003ca8:	2301      	movs	r3, #1
 8003caa:	e06e      	b.n	8003d8a <HAL_UART_Transmit+0x10e>
 8003cac:	68fb      	ldr	r3, [r7, #12]
 8003cae:	2200      	movs	r2, #0
 8003cb0:	645a      	str	r2, [r3, #68]	@ 0x44
 8003cb2:	68fb      	ldr	r3, [r7, #12]
 8003cb4:	2221      	movs	r2, #33	@ 0x21
 8003cb6:	f883 2041 	strb.w	r2, [r3, #65]	@ 0x41
 8003cba:	f7fd fc31 	bl	8001520 <HAL_GetTick>
 8003cbe:	6178      	str	r0, [r7, #20]
 8003cc0:	68fb      	ldr	r3, [r7, #12]
 8003cc2:	88fa      	ldrh	r2, [r7, #6]
 8003cc4:	849a      	strh	r2, [r3, #36]	@ 0x24
 8003cc6:	68fb      	ldr	r3, [r7, #12]
 8003cc8:	88fa      	ldrh	r2, [r7, #6]
 8003cca:	84da      	strh	r2, [r3, #38]	@ 0x26
 8003ccc:	68fb      	ldr	r3, [r7, #12]
 8003cce:	689b      	ldr	r3, [r3, #8]
 8003cd0:	f5b3 5f80 	cmp.w	r3, #4096	@ 0x1000
 8003cd4:	d108      	bne.n	8003ce8 <HAL_UART_Transmit+0x6c>
 8003cd6:	68fb      	ldr	r3, [r7, #12]
 8003cd8:	691b      	ldr	r3, [r3, #16]
 8003cda:	2b00      	cmp	r3, #0
 8003cdc:	d104      	bne.n	8003ce8 <HAL_UART_Transmit+0x6c>
 8003cde:	2300      	movs	r3, #0
 8003ce0:	61fb      	str	r3, [r7, #28]
 8003ce2:	68bb      	ldr	r3, [r7, #8]
 8003ce4:	61bb      	str	r3, [r7, #24]
 8003ce6:	e003      	b.n	8003cf0 <HAL_UART_Transmit+0x74>
 8003ce8:	68bb      	ldr	r3, [r7, #8]
 8003cea:	61fb      	str	r3, [r7, #28]
 8003cec:	2300      	movs	r3, #0
 8003cee:	61bb      	str	r3, [r7, #24]
 8003cf0:	e02e      	b.n	8003d50 <HAL_UART_Transmit+0xd4>
 8003cf2:	683b      	ldr	r3, [r7, #0]
 8003cf4:	9300      	str	r3, [sp, #0]
 8003cf6:	697b      	ldr	r3, [r7, #20]
 8003cf8:	2200      	movs	r2, #0
 8003cfa:	2180      	movs	r1, #128	@ 0x80
 8003cfc:	68f8      	ldr	r0, [r7, #12]
 8003cfe:	f000 fc55 	bl	80045ac <UART_WaitOnFlagUntilTimeout>
 8003d02:	4603      	mov	r3, r0
 8003d04:	2b00      	cmp	r3, #0
 8003d06:	d005      	beq.n	8003d14 <HAL_UART_Transmit+0x98>
 8003d08:	68fb      	ldr	r3, [r7, #12]
 8003d0a:	2220      	movs	r2, #32
 8003d0c:	f883 2041 	strb.w	r2, [r3, #65]	@ 0x41
 8003d10:	2303      	movs	r3, #3
 8003d12:	e03a      	b.n	8003d8a <HAL_UART_Transmit+0x10e>
 8003d14:	69fb      	ldr	r3, [r7, #28]
 8003d16:	2b00      	cmp	r3, #0
 8003d18:	d10b      	bne.n	8003d32 <HAL_UART_Transmit+0xb6>
 8003d1a:	69bb      	ldr	r3, [r7, #24]
 8003d1c:	881b      	ldrh	r3, [r3, #0]
 8003d1e:	461a      	mov	r2, r3
 8003d20:	68fb      	ldr	r3, [r7, #12]
 8003d22:	681b      	ldr	r3, [r3, #0]
 8003d24:	f3c2 0208 	ubfx	r2, r2, #0, #9
 8003d28:	605a      	str	r2, [r3, #4]
 8003d2a:	69bb      	ldr	r3, [r7, #24]
 8003d2c:	3302      	adds	r3, #2
 8003d2e:	61bb      	str	r3, [r7, #24]
 8003d30:	e007      	b.n	8003d42 <HAL_UART_Transmit+0xc6>
 8003d32:	69fb      	ldr	r3, [r7, #28]
 8003d34:	781a      	ldrb	r2, [r3, #0]
 8003d36:	68fb      	ldr	r3, [r7, #12]
 8003d38:	681b      	ldr	r3, [r3, #0]
 8003d3a:	605a      	str	r2, [r3, #4]
 8003d3c:	69fb      	ldr	r3, [r7, #28]
 8003d3e:	3301      	adds	r3, #1
 8003d40:	61fb      	str	r3, [r7, #28]
 8003d42:	68fb      	ldr	r3, [r7, #12]
 8003d44:	8cdb      	ldrh	r3, [r3, #38]	@ 0x26
 8003d46:	b29b      	uxth	r3, r3
 8003d48:	3b01      	subs	r3, #1
 8003d4a:	b29a      	uxth	r2, r3
 8003d4c:	68fb      	ldr	r3, [r7, #12]
 8003d4e:	84da      	strh	r2, [r3, #38]	@ 0x26
 8003d50:	68fb      	ldr	r3, [r7, #12]
 8003d52:	8cdb      	ldrh	r3, [r3, #38]	@ 0x26
 8003d54:	b29b      	uxth	r3, r3
 8003d56:	2b00      	cmp	r3, #0
 8003d58:	d1cb      	bne.n	8003cf2 <HAL_UART_Transmit+0x76>
 8003d5a:	683b      	ldr	r3, [r7, #0]
 8003d5c:	9300      	str	r3, [sp, #0]
 8003d5e:	697b      	ldr	r3, [r7, #20]
 8003d60:	2200      	movs	r2, #0
 8003d62:	2140      	movs	r1, #64	@ 0x40
 8003d64:	68f8      	ldr	r0, [r7, #12]
 8003d66:	f000 fc21 	bl	80045ac <UART_WaitOnFlagUntilTimeout>
 8003d6a:	4603      	mov	r3, r0
 8003d6c:	2b00      	cmp	r3, #0
 8003d6e:	d005      	beq.n	8003d7c <HAL_UART_Transmit+0x100>
 8003d70:	68fb      	ldr	r3, [r7, #12]
 8003d72:	2220      	movs	r2, #32
 8003d74:	f883 2041 	strb.w	r2, [r3, #65]	@ 0x41
 8003d78:	2303      	movs	r3, #3
 8003d7a:	e006      	b.n	8003d8a <HAL_UART_Transmit+0x10e>
 8003d7c:	68fb      	ldr	r3, [r7, #12]
 8003d7e:	2220      	movs	r2, #32
 8003d80:	f883 2041 	strb.w	r2, [r3, #65]	@ 0x41
 8003d84:	2300      	movs	r3, #0
 8003d86:	e000      	b.n	8003d8a <HAL_UART_Transmit+0x10e>
 8003d88:	2302      	movs	r3, #2
 8003d8a:	4618      	mov	r0, r3
 8003d8c:	3720      	adds	r7, #32
 8003d8e:	46bd      	mov	sp, r7
 8003d90:	bd80      	pop	{r7, pc}

08003d92 <HAL_UARTEx_ReceiveToIdle_DMA>:
 8003d92:	b580      	push	{r7, lr}
 8003d94:	b08c      	sub	sp, #48	@ 0x30
 8003d96:	af00      	add	r7, sp, #0
 8003d98:	60f8      	str	r0, [r7, #12]
 8003d9a:	60b9      	str	r1, [r7, #8]
 8003d9c:	4613      	mov	r3, r2
 8003d9e:	80fb      	strh	r3, [r7, #6]
 8003da0:	68fb      	ldr	r3, [r7, #12]
 8003da2:	f893 3042 	ldrb.w	r3, [r3, #66]	@ 0x42
 8003da6:	b2db      	uxtb	r3, r3
 8003da8:	2b20      	cmp	r3, #32
 8003daa:	d146      	bne.n	8003e3a <HAL_UARTEx_ReceiveToIdle_DMA+0xa8>
 8003dac:	68bb      	ldr	r3, [r7, #8]
 8003dae:	2b00      	cmp	r3, #0
 8003db0:	d002      	beq.n	8003db8 <HAL_UARTEx_ReceiveToIdle_DMA+0x26>
 8003db2:	88fb      	ldrh	r3, [r7, #6]
 8003db4:	2b00      	cmp	r3, #0
 8003db6:	d101      	bne.n	8003dbc <HAL_UARTEx_ReceiveToIdle_DMA+0x2a>
 8003db8:	2301      	movs	r3, #1
 8003dba:	e03f      	b.n	8003e3c <HAL_UARTEx_ReceiveToIdle_DMA+0xaa>
 8003dbc:	68fb      	ldr	r3, [r7, #12]
 8003dbe:	2201      	movs	r2, #1
 8003dc0:	631a      	str	r2, [r3, #48]	@ 0x30
 8003dc2:	68fb      	ldr	r3, [r7, #12]
 8003dc4:	2200      	movs	r2, #0
 8003dc6:	635a      	str	r2, [r3, #52]	@ 0x34
 8003dc8:	88fb      	ldrh	r3, [r7, #6]
 8003dca:	461a      	mov	r2, r3
 8003dcc:	68b9      	ldr	r1, [r7, #8]
 8003dce:	68f8      	ldr	r0, [r7, #12]
 8003dd0:	f000 fc46 	bl	8004660 <UART_Start_Receive_DMA>
 8003dd4:	4603      	mov	r3, r0
 8003dd6:	f887 302f 	strb.w	r3, [r7, #47]	@ 0x2f
 8003dda:	68fb      	ldr	r3, [r7, #12]
 8003ddc:	6b1b      	ldr	r3, [r3, #48]	@ 0x30
 8003dde:	2b01      	cmp	r3, #1
 8003de0:	d125      	bne.n	8003e2e <HAL_UARTEx_ReceiveToIdle_DMA+0x9c>
 8003de2:	2300      	movs	r3, #0
 8003de4:	613b      	str	r3, [r7, #16]
 8003de6:	68fb      	ldr	r3, [r7, #12]
 8003de8:	681b      	ldr	r3, [r3, #0]
 8003dea:	681b      	ldr	r3, [r3, #0]
 8003dec:	613b      	str	r3, [r7, #16]
 8003dee:	68fb      	ldr	r3, [r7, #12]
 8003df0:	681b      	ldr	r3, [r3, #0]
 8003df2:	685b      	ldr	r3, [r3, #4]
 8003df4:	613b      	str	r3, [r7, #16]
 8003df6:	693b      	ldr	r3, [r7, #16]
 8003df8:	68fb      	ldr	r3, [r7, #12]
 8003dfa:	681b      	ldr	r3, [r3, #0]
 8003dfc:	330c      	adds	r3, #12
 8003dfe:	61bb      	str	r3, [r7, #24]
 8003e00:	69bb      	ldr	r3, [r7, #24]
 8003e02:	e853 3f00 	ldrex	r3, [r3]
 8003e06:	617b      	str	r3, [r7, #20]
 8003e08:	697b      	ldr	r3, [r7, #20]
 8003e0a:	f043 0310 	orr.w	r3, r3, #16
 8003e0e:	62bb      	str	r3, [r7, #40]	@ 0x28
 8003e10:	68fb      	ldr	r3, [r7, #12]
 8003e12:	681b      	ldr	r3, [r3, #0]
 8003e14:	330c      	adds	r3, #12
 8003e16:	6aba      	ldr	r2, [r7, #40]	@ 0x28
 8003e18:	627a      	str	r2, [r7, #36]	@ 0x24
 8003e1a:	623b      	str	r3, [r7, #32]
 8003e1c:	6a39      	ldr	r1, [r7, #32]
 8003e1e:	6a7a      	ldr	r2, [r7, #36]	@ 0x24
 8003e20:	e841 2300 	strex	r3, r2, [r1]
 8003e24:	61fb      	str	r3, [r7, #28]
 8003e26:	69fb      	ldr	r3, [r7, #28]
 8003e28:	2b00      	cmp	r3, #0
 8003e2a:	d1e5      	bne.n	8003df8 <HAL_UARTEx_ReceiveToIdle_DMA+0x66>
 8003e2c:	e002      	b.n	8003e34 <HAL_UARTEx_ReceiveToIdle_DMA+0xa2>
 8003e2e:	2301      	movs	r3, #1
 8003e30:	f887 302f 	strb.w	r3, [r7, #47]	@ 0x2f
 8003e34:	f897 302f 	ldrb.w	r3, [r7, #47]	@ 0x2f
 8003e38:	e000      	b.n	8003e3c <HAL_UARTEx_ReceiveToIdle_DMA+0xaa>
 8003e3a:	2302      	movs	r3, #2
 8003e3c:	4618      	mov	r0, r3
 8003e3e:	3730      	adds	r7, #48	@ 0x30
 8003e40:	46bd      	mov	sp, r7
 8003e42:	bd80      	pop	{r7, pc}

08003e44 <HAL_UART_IRQHandler>:
 8003e44:	b580      	push	{r7, lr}
 8003e46:	b0ba      	sub	sp, #232	@ 0xe8
 8003e48:	af00      	add	r7, sp, #0
 8003e4a:	6078      	str	r0, [r7, #4]
 8003e4c:	687b      	ldr	r3, [r7, #4]
 8003e4e:	681b      	ldr	r3, [r3, #0]
 8003e50:	681b      	ldr	r3, [r3, #0]
 8003e52:	f8c7 30e4 	str.w	r3, [r7, #228]	@ 0xe4
 8003e56:	687b      	ldr	r3, [r7, #4]
 8003e58:	681b      	ldr	r3, [r3, #0]
 8003e5a:	68db      	ldr	r3, [r3, #12]
 8003e5c:	f8c7 30e0 	str.w	r3, [r7, #224]	@ 0xe0
 8003e60:	687b      	ldr	r3, [r7, #4]
 8003e62:	681b      	ldr	r3, [r3, #0]
 8003e64:	695b      	ldr	r3, [r3, #20]
 8003e66:	f8c7 30dc 	str.w	r3, [r7, #220]	@ 0xdc
 8003e6a:	2300      	movs	r3, #0
 8003e6c:	f8c7 30d8 	str.w	r3, [r7, #216]	@ 0xd8
 8003e70:	2300      	movs	r3, #0
 8003e72:	f8c7 30d4 	str.w	r3, [r7, #212]	@ 0xd4
 8003e76:	f8d7 30e4 	ldr.w	r3, [r7, #228]	@ 0xe4
 8003e7a:	f003 030f 	and.w	r3, r3, #15
 8003e7e:	f8c7 30d8 	str.w	r3, [r7, #216]	@ 0xd8
 8003e82:	f8d7 30d8 	ldr.w	r3, [r7, #216]	@ 0xd8
 8003e86:	2b00      	cmp	r3, #0
 8003e88:	d10f      	bne.n	8003eaa <HAL_UART_IRQHandler+0x66>
 8003e8a:	f8d7 30e4 	ldr.w	r3, [r7, #228]	@ 0xe4
 8003e8e:	f003 0320 	and.w	r3, r3, #32
 8003e92:	2b00      	cmp	r3, #0
 8003e94:	d009      	beq.n	8003eaa <HAL_UART_IRQHandler+0x66>
 8003e96:	f8d7 30e0 	ldr.w	r3, [r7, #224]	@ 0xe0
 8003e9a:	f003 0320 	and.w	r3, r3, #32
 8003e9e:	2b00      	cmp	r3, #0
 8003ea0:	d003      	beq.n	8003eaa <HAL_UART_IRQHandler+0x66>
 8003ea2:	6878      	ldr	r0, [r7, #4]
 8003ea4:	f000 fd7a 	bl	800499c <UART_Receive_IT>
 8003ea8:	e25b      	b.n	8004362 <HAL_UART_IRQHandler+0x51e>
 8003eaa:	f8d7 30d8 	ldr.w	r3, [r7, #216]	@ 0xd8
 8003eae:	2b00      	cmp	r3, #0
 8003eb0:	f000 80de 	beq.w	8004070 <HAL_UART_IRQHandler+0x22c>
 8003eb4:	f8d7 30dc 	ldr.w	r3, [r7, #220]	@ 0xdc
 8003eb8:	f003 0301 	and.w	r3, r3, #1
 8003ebc:	2b00      	cmp	r3, #0
 8003ebe:	d106      	bne.n	8003ece <HAL_UART_IRQHandler+0x8a>
 8003ec0:	f8d7 30e0 	ldr.w	r3, [r7, #224]	@ 0xe0
 8003ec4:	f403 7390 	and.w	r3, r3, #288	@ 0x120
 8003ec8:	2b00      	cmp	r3, #0
 8003eca:	f000 80d1 	beq.w	8004070 <HAL_UART_IRQHandler+0x22c>
 8003ece:	f8d7 30e4 	ldr.w	r3, [r7, #228]	@ 0xe4
 8003ed2:	f003 0301 	and.w	r3, r3, #1
 8003ed6:	2b00      	cmp	r3, #0
 8003ed8:	d00b      	beq.n	8003ef2 <HAL_UART_IRQHandler+0xae>
 8003eda:	f8d7 30e0 	ldr.w	r3, [r7, #224]	@ 0xe0
 8003ede:	f403 7380 	and.w	r3, r3, #256	@ 0x100
 8003ee2:	2b00      	cmp	r3, #0
 8003ee4:	d005      	beq.n	8003ef2 <HAL_UART_IRQHandler+0xae>
 8003ee6:	687b      	ldr	r3, [r7, #4]
 8003ee8:	6c5b      	ldr	r3, [r3, #68]	@ 0x44
 8003eea:	f043 0201 	orr.w	r2, r3, #1
 8003eee:	687b      	ldr	r3, [r7, #4]
 8003ef0:	645a      	str	r2, [r3, #68]	@ 0x44
 8003ef2:	f8d7 30e4 	ldr.w	r3, [r7, #228]	@ 0xe4
 8003ef6:	f003 0304 	and.w	r3, r3, #4
 8003efa:	2b00      	cmp	r3, #0
 8003efc:	d00b      	beq.n	8003f16 <HAL_UART_IRQHandler+0xd2>
 8003efe:	f8d7 30dc 	ldr.w	r3, [r7, #220]	@ 0xdc
 8003f02:	f003 0301 	and.w	r3, r3, #1
 8003f06:	2b00      	cmp	r3, #0
 8003f08:	d005      	beq.n	8003f16 <HAL_UART_IRQHandler+0xd2>
 8003f0a:	687b      	ldr	r3, [r7, #4]
 8003f0c:	6c5b      	ldr	r3, [r3, #68]	@ 0x44
 8003f0e:	f043 0202 	orr.w	r2, r3, #2
 8003f12:	687b      	ldr	r3, [r7, #4]
 8003f14:	645a      	str	r2, [r3, #68]	@ 0x44
 8003f16:	f8d7 30e4 	ldr.w	r3, [r7, #228]	@ 0xe4
 8003f1a:	f003 0302 	and.w	r3, r3, #2
 8003f1e:	2b00      	cmp	r3, #0
 8003f20:	d00b      	beq.n	8003f3a <HAL_UART_IRQHandler+0xf6>
 8003f22:	f8d7 30dc 	ldr.w	r3, [r7, #220]	@ 0xdc
 8003f26:	f003 0301 	and.w	r3, r3, #1
 8003f2a:	2b00      	cmp	r3, #0
 8003f2c:	d005      	beq.n	8003f3a <HAL_UART_IRQHandler+0xf6>
 8003f2e:	687b      	ldr	r3, [r7, #4]
 8003f30:	6c5b      	ldr	r3, [r3, #68]	@ 0x44
 8003f32:	f043 0204 	orr.w	r2, r3, #4
 8003f36:	687b      	ldr	r3, [r7, #4]
 8003f38:	645a      	str	r2, [r3, #68]	@ 0x44
 8003f3a:	f8d7 30e4 	ldr.w	r3, [r7, #228]	@ 0xe4
 8003f3e:	f003 0308 	and.w	r3, r3, #8
 8003f42:	2b00      	cmp	r3, #0
 8003f44:	d011      	beq.n	8003f6a <HAL_UART_IRQHandler+0x126>
 8003f46:	f8d7 30e0 	ldr.w	r3, [r7, #224]	@ 0xe0
 8003f4a:	f003 0320 	and.w	r3, r3, #32
 8003f4e:	2b00      	cmp	r3, #0
 8003f50:	d105      	bne.n	8003f5e <HAL_UART_IRQHandler+0x11a>
 8003f52:	f8d7 30dc 	ldr.w	r3, [r7, #220]	@ 0xdc
 8003f56:	f003 0301 	and.w	r3, r3, #1
 8003f5a:	2b00      	cmp	r3, #0
 8003f5c:	d005      	beq.n	8003f6a <HAL_UART_IRQHandler+0x126>
 8003f5e:	687b      	ldr	r3, [r7, #4]
 8003f60:	6c5b      	ldr	r3, [r3, #68]	@ 0x44
 8003f62:	f043 0208 	orr.w	r2, r3, #8
 8003f66:	687b      	ldr	r3, [r7, #4]
 8003f68:	645a      	str	r2, [r3, #68]	@ 0x44
 8003f6a:	687b      	ldr	r3, [r7, #4]
 8003f6c:	6c5b      	ldr	r3, [r3, #68]	@ 0x44
 8003f6e:	2b00      	cmp	r3, #0
 8003f70:	f000 81f2 	beq.w	8004358 <HAL_UART_IRQHandler+0x514>
 8003f74:	f8d7 30e4 	ldr.w	r3, [r7, #228]	@ 0xe4
 8003f78:	f003 0320 	and.w	r3, r3, #32
 8003f7c:	2b00      	cmp	r3, #0
 8003f7e:	d008      	beq.n	8003f92 <HAL_UART_IRQHandler+0x14e>
 8003f80:	f8d7 30e0 	ldr.w	r3, [r7, #224]	@ 0xe0
 8003f84:	f003 0320 	and.w	r3, r3, #32
 8003f88:	2b00      	cmp	r3, #0
 8003f8a:	d002      	beq.n	8003f92 <HAL_UART_IRQHandler+0x14e>
 8003f8c:	6878      	ldr	r0, [r7, #4]
 8003f8e:	f000 fd05 	bl	800499c <UART_Receive_IT>
 8003f92:	687b      	ldr	r3, [r7, #4]
 8003f94:	681b      	ldr	r3, [r3, #0]
 8003f96:	695b      	ldr	r3, [r3, #20]
 8003f98:	f003 0340 	and.w	r3, r3, #64	@ 0x40
 8003f9c:	2b00      	cmp	r3, #0
 8003f9e:	bf14      	ite	ne
 8003fa0:	2301      	movne	r3, #1
 8003fa2:	2300      	moveq	r3, #0
 8003fa4:	b2db      	uxtb	r3, r3
 8003fa6:	f8c7 30d4 	str.w	r3, [r7, #212]	@ 0xd4
 8003faa:	687b      	ldr	r3, [r7, #4]
 8003fac:	6c5b      	ldr	r3, [r3, #68]	@ 0x44
 8003fae:	f003 0308 	and.w	r3, r3, #8
 8003fb2:	2b00      	cmp	r3, #0
 8003fb4:	d103      	bne.n	8003fbe <HAL_UART_IRQHandler+0x17a>
 8003fb6:	f8d7 30d4 	ldr.w	r3, [r7, #212]	@ 0xd4
 8003fba:	2b00      	cmp	r3, #0
 8003fbc:	d04f      	beq.n	800405e <HAL_UART_IRQHandler+0x21a>
 8003fbe:	6878      	ldr	r0, [r7, #4]
 8003fc0:	f000 fc0f 	bl	80047e2 <UART_EndRxTransfer>
 8003fc4:	687b      	ldr	r3, [r7, #4]
 8003fc6:	681b      	ldr	r3, [r3, #0]
 8003fc8:	695b      	ldr	r3, [r3, #20]
 8003fca:	f003 0340 	and.w	r3, r3, #64	@ 0x40
 8003fce:	2b00      	cmp	r3, #0
 8003fd0:	d041      	beq.n	8004056 <HAL_UART_IRQHandler+0x212>
 8003fd2:	687b      	ldr	r3, [r7, #4]
 8003fd4:	681b      	ldr	r3, [r3, #0]
 8003fd6:	3314      	adds	r3, #20
 8003fd8:	f8c7 309c 	str.w	r3, [r7, #156]	@ 0x9c
 8003fdc:	f8d7 309c 	ldr.w	r3, [r7, #156]	@ 0x9c
 8003fe0:	e853 3f00 	ldrex	r3, [r3]
 8003fe4:	f8c7 3098 	str.w	r3, [r7, #152]	@ 0x98
 8003fe8:	f8d7 3098 	ldr.w	r3, [r7, #152]	@ 0x98
 8003fec:	f023 0340 	bic.w	r3, r3, #64	@ 0x40
 8003ff0:	f8c7 30d0 	str.w	r3, [r7, #208]	@ 0xd0
 8003ff4:	687b      	ldr	r3, [r7, #4]
 8003ff6:	681b      	ldr	r3, [r3, #0]
 8003ff8:	3314      	adds	r3, #20
 8003ffa:	f8d7 20d0 	ldr.w	r2, [r7, #208]	@ 0xd0
 8003ffe:	f8c7 20a8 	str.w	r2, [r7, #168]	@ 0xa8
 8004002:	f8c7 30a4 	str.w	r3, [r7, #164]	@ 0xa4
 8004006:	f8d7 10a4 	ldr.w	r1, [r7, #164]	@ 0xa4
 800400a:	f8d7 20a8 	ldr.w	r2, [r7, #168]	@ 0xa8
 800400e:	e841 2300 	strex	r3, r2, [r1]
 8004012:	f8c7 30a0 	str.w	r3, [r7, #160]	@ 0xa0
 8004016:	f8d7 30a0 	ldr.w	r3, [r7, #160]	@ 0xa0
 800401a:	2b00      	cmp	r3, #0
 800401c:	d1d9      	bne.n	8003fd2 <HAL_UART_IRQHandler+0x18e>
 800401e:	687b      	ldr	r3, [r7, #4]
 8004020:	6bdb      	ldr	r3, [r3, #60]	@ 0x3c
 8004022:	2b00      	cmp	r3, #0
 8004024:	d013      	beq.n	800404e <HAL_UART_IRQHandler+0x20a>
 8004026:	687b      	ldr	r3, [r7, #4]
 8004028:	6bdb      	ldr	r3, [r3, #60]	@ 0x3c
 800402a:	4a7e      	ldr	r2, [pc, #504]	@ (8004224 <HAL_UART_IRQHandler+0x3e0>)
 800402c:	635a      	str	r2, [r3, #52]	@ 0x34
 800402e:	687b      	ldr	r3, [r7, #4]
 8004030:	6bdb      	ldr	r3, [r3, #60]	@ 0x3c
 8004032:	4618      	mov	r0, r3
 8004034:	f7fe fa32 	bl	800249c <HAL_DMA_Abort_IT>
 8004038:	4603      	mov	r3, r0
 800403a:	2b00      	cmp	r3, #0
 800403c:	d016      	beq.n	800406c <HAL_UART_IRQHandler+0x228>
 800403e:	687b      	ldr	r3, [r7, #4]
 8004040:	6bdb      	ldr	r3, [r3, #60]	@ 0x3c
 8004042:	6b5b      	ldr	r3, [r3, #52]	@ 0x34
 8004044:	687a      	ldr	r2, [r7, #4]
 8004046:	6bd2      	ldr	r2, [r2, #60]	@ 0x3c
 8004048:	4610      	mov	r0, r2
 800404a:	4798      	blx	r3
 800404c:	e00e      	b.n	800406c <HAL_UART_IRQHandler+0x228>
 800404e:	6878      	ldr	r0, [r7, #4]
 8004050:	f000 f9a5 	bl	800439e <HAL_UART_ErrorCallback>
 8004054:	e00a      	b.n	800406c <HAL_UART_IRQHandler+0x228>
 8004056:	6878      	ldr	r0, [r7, #4]
 8004058:	f000 f9a1 	bl	800439e <HAL_UART_ErrorCallback>
 800405c:	e006      	b.n	800406c <HAL_UART_IRQHandler+0x228>
 800405e:	6878      	ldr	r0, [r7, #4]
 8004060:	f000 f99d 	bl	800439e <HAL_UART_ErrorCallback>
 8004064:	687b      	ldr	r3, [r7, #4]
 8004066:	2200      	movs	r2, #0
 8004068:	645a      	str	r2, [r3, #68]	@ 0x44
 800406a:	e175      	b.n	8004358 <HAL_UART_IRQHandler+0x514>
 800406c:	bf00      	nop
 800406e:	e173      	b.n	8004358 <HAL_UART_IRQHandler+0x514>
 8004070:	687b      	ldr	r3, [r7, #4]
 8004072:	6b1b      	ldr	r3, [r3, #48]	@ 0x30
 8004074:	2b01      	cmp	r3, #1
 8004076:	f040 814f 	bne.w	8004318 <HAL_UART_IRQHandler+0x4d4>
 800407a:	f8d7 30e4 	ldr.w	r3, [r7, #228]	@ 0xe4
 800407e:	f003 0310 	and.w	r3, r3, #16
 8004082:	2b00      	cmp	r3, #0
 8004084:	f000 8148 	beq.w	8004318 <HAL_UART_IRQHandler+0x4d4>
 8004088:	f8d7 30e0 	ldr.w	r3, [r7, #224]	@ 0xe0
 800408c:	f003 0310 	and.w	r3, r3, #16
 8004090:	2b00      	cmp	r3, #0
 8004092:	f000 8141 	beq.w	8004318 <HAL_UART_IRQHandler+0x4d4>
 8004096:	2300      	movs	r3, #0
 8004098:	60bb      	str	r3, [r7, #8]
 800409a:	687b      	ldr	r3, [r7, #4]
 800409c:	681b      	ldr	r3, [r3, #0]
 800409e:	681b      	ldr	r3, [r3, #0]
 80040a0:	60bb      	str	r3, [r7, #8]
 80040a2:	687b      	ldr	r3, [r7, #4]
 80040a4:	681b      	ldr	r3, [r3, #0]
 80040a6:	685b      	ldr	r3, [r3, #4]
 80040a8:	60bb      	str	r3, [r7, #8]
 80040aa:	68bb      	ldr	r3, [r7, #8]
 80040ac:	687b      	ldr	r3, [r7, #4]
 80040ae:	681b      	ldr	r3, [r3, #0]
 80040b0:	695b      	ldr	r3, [r3, #20]
 80040b2:	f003 0340 	and.w	r3, r3, #64	@ 0x40
 80040b6:	2b00      	cmp	r3, #0
 80040b8:	f000 80b6 	beq.w	8004228 <HAL_UART_IRQHandler+0x3e4>
 80040bc:	687b      	ldr	r3, [r7, #4]
 80040be:	6bdb      	ldr	r3, [r3, #60]	@ 0x3c
 80040c0:	681b      	ldr	r3, [r3, #0]
 80040c2:	685b      	ldr	r3, [r3, #4]
 80040c4:	f8a7 30be 	strh.w	r3, [r7, #190]	@ 0xbe
 80040c8:	f8b7 30be 	ldrh.w	r3, [r7, #190]	@ 0xbe
 80040cc:	2b00      	cmp	r3, #0
 80040ce:	f000 8145 	beq.w	800435c <HAL_UART_IRQHandler+0x518>
 80040d2:	687b      	ldr	r3, [r7, #4]
 80040d4:	8d9b      	ldrh	r3, [r3, #44]	@ 0x2c
 80040d6:	f8b7 20be 	ldrh.w	r2, [r7, #190]	@ 0xbe
 80040da:	429a      	cmp	r2, r3
 80040dc:	f080 813e 	bcs.w	800435c <HAL_UART_IRQHandler+0x518>
 80040e0:	687b      	ldr	r3, [r7, #4]
 80040e2:	f8b7 20be 	ldrh.w	r2, [r7, #190]	@ 0xbe
 80040e6:	85da      	strh	r2, [r3, #46]	@ 0x2e
 80040e8:	687b      	ldr	r3, [r7, #4]
 80040ea:	6bdb      	ldr	r3, [r3, #60]	@ 0x3c
 80040ec:	699b      	ldr	r3, [r3, #24]
 80040ee:	2b20      	cmp	r3, #32
 80040f0:	f000 8088 	beq.w	8004204 <HAL_UART_IRQHandler+0x3c0>
 80040f4:	687b      	ldr	r3, [r7, #4]
 80040f6:	681b      	ldr	r3, [r3, #0]
 80040f8:	330c      	adds	r3, #12
 80040fa:	f8c7 3088 	str.w	r3, [r7, #136]	@ 0x88
 80040fe:	f8d7 3088 	ldr.w	r3, [r7, #136]	@ 0x88
 8004102:	e853 3f00 	ldrex	r3, [r3]
 8004106:	f8c7 3084 	str.w	r3, [r7, #132]	@ 0x84
 800410a:	f8d7 3084 	ldr.w	r3, [r7, #132]	@ 0x84
 800410e:	f423 7380 	bic.w	r3, r3, #256	@ 0x100
 8004112:	f8c7 30b8 	str.w	r3, [r7, #184]	@ 0xb8
 8004116:	687b      	ldr	r3, [r7, #4]
 8004118:	681b      	ldr	r3, [r3, #0]
 800411a:	330c      	adds	r3, #12
 800411c:	f8d7 20b8 	ldr.w	r2, [r7, #184]	@ 0xb8
 8004120:	f8c7 2094 	str.w	r2, [r7, #148]	@ 0x94
 8004124:	f8c7 3090 	str.w	r3, [r7, #144]	@ 0x90
 8004128:	f8d7 1090 	ldr.w	r1, [r7, #144]	@ 0x90
 800412c:	f8d7 2094 	ldr.w	r2, [r7, #148]	@ 0x94
 8004130:	e841 2300 	strex	r3, r2, [r1]
 8004134:	f8c7 308c 	str.w	r3, [r7, #140]	@ 0x8c
 8004138:	f8d7 308c 	ldr.w	r3, [r7, #140]	@ 0x8c
 800413c:	2b00      	cmp	r3, #0
 800413e:	d1d9      	bne.n	80040f4 <HAL_UART_IRQHandler+0x2b0>
 8004140:	687b      	ldr	r3, [r7, #4]
 8004142:	681b      	ldr	r3, [r3, #0]
 8004144:	3314      	adds	r3, #20
 8004146:	677b      	str	r3, [r7, #116]	@ 0x74
 8004148:	6f7b      	ldr	r3, [r7, #116]	@ 0x74
 800414a:	e853 3f00 	ldrex	r3, [r3]
 800414e:	673b      	str	r3, [r7, #112]	@ 0x70
 8004150:	6f3b      	ldr	r3, [r7, #112]	@ 0x70
 8004152:	f023 0301 	bic.w	r3, r3, #1
 8004156:	f8c7 30b4 	str.w	r3, [r7, #180]	@ 0xb4
 800415a:	687b      	ldr	r3, [r7, #4]
 800415c:	681b      	ldr	r3, [r3, #0]
 800415e:	3314      	adds	r3, #20
 8004160:	f8d7 20b4 	ldr.w	r2, [r7, #180]	@ 0xb4
 8004164:	f8c7 2080 	str.w	r2, [r7, #128]	@ 0x80
 8004168:	67fb      	str	r3, [r7, #124]	@ 0x7c
 800416a:	6ff9      	ldr	r1, [r7, #124]	@ 0x7c
 800416c:	f8d7 2080 	ldr.w	r2, [r7, #128]	@ 0x80
 8004170:	e841 2300 	strex	r3, r2, [r1]
 8004174:	67bb      	str	r3, [r7, #120]	@ 0x78
 8004176:	6fbb      	ldr	r3, [r7, #120]	@ 0x78
 8004178:	2b00      	cmp	r3, #0
 800417a:	d1e1      	bne.n	8004140 <HAL_UART_IRQHandler+0x2fc>
 800417c:	687b      	ldr	r3, [r7, #4]
 800417e:	681b      	ldr	r3, [r3, #0]
 8004180:	3314      	adds	r3, #20
 8004182:	663b      	str	r3, [r7, #96]	@ 0x60
 8004184:	6e3b      	ldr	r3, [r7, #96]	@ 0x60
 8004186:	e853 3f00 	ldrex	r3, [r3]
 800418a:	65fb      	str	r3, [r7, #92]	@ 0x5c
 800418c:	6dfb      	ldr	r3, [r7, #92]	@ 0x5c
 800418e:	f023 0340 	bic.w	r3, r3, #64	@ 0x40
 8004192:	f8c7 30b0 	str.w	r3, [r7, #176]	@ 0xb0
 8004196:	687b      	ldr	r3, [r7, #4]
 8004198:	681b      	ldr	r3, [r3, #0]
 800419a:	3314      	adds	r3, #20
 800419c:	f8d7 20b0 	ldr.w	r2, [r7, #176]	@ 0xb0
 80041a0:	66fa      	str	r2, [r7, #108]	@ 0x6c
 80041a2:	66bb      	str	r3, [r7, #104]	@ 0x68
 80041a4:	6eb9      	ldr	r1, [r7, #104]	@ 0x68
 80041a6:	6efa      	ldr	r2, [r7, #108]	@ 0x6c
 80041a8:	e841 2300 	strex	r3, r2, [r1]
 80041ac:	667b      	str	r3, [r7, #100]	@ 0x64
 80041ae:	6e7b      	ldr	r3, [r7, #100]	@ 0x64
 80041b0:	2b00      	cmp	r3, #0
 80041b2:	d1e3      	bne.n	800417c <HAL_UART_IRQHandler+0x338>
 80041b4:	687b      	ldr	r3, [r7, #4]
 80041b6:	2220      	movs	r2, #32
 80041b8:	f883 2042 	strb.w	r2, [r3, #66]	@ 0x42
 80041bc:	687b      	ldr	r3, [r7, #4]
 80041be:	2200      	movs	r2, #0
 80041c0:	631a      	str	r2, [r3, #48]	@ 0x30
 80041c2:	687b      	ldr	r3, [r7, #4]
 80041c4:	681b      	ldr	r3, [r3, #0]
 80041c6:	330c      	adds	r3, #12
 80041c8:	64fb      	str	r3, [r7, #76]	@ 0x4c
 80041ca:	6cfb      	ldr	r3, [r7, #76]	@ 0x4c
 80041cc:	e853 3f00 	ldrex	r3, [r3]
 80041d0:	64bb      	str	r3, [r7, #72]	@ 0x48
 80041d2:	6cbb      	ldr	r3, [r7, #72]	@ 0x48
 80041d4:	f023 0310 	bic.w	r3, r3, #16
 80041d8:	f8c7 30ac 	str.w	r3, [r7, #172]	@ 0xac
 80041dc:	687b      	ldr	r3, [r7, #4]
 80041de:	681b      	ldr	r3, [r3, #0]
 80041e0:	330c      	adds	r3, #12
 80041e2:	f8d7 20ac 	ldr.w	r2, [r7, #172]	@ 0xac
 80041e6:	65ba      	str	r2, [r7, #88]	@ 0x58
 80041e8:	657b      	str	r3, [r7, #84]	@ 0x54
 80041ea:	6d79      	ldr	r1, [r7, #84]	@ 0x54
 80041ec:	6dba      	ldr	r2, [r7, #88]	@ 0x58
 80041ee:	e841 2300 	strex	r3, r2, [r1]
 80041f2:	653b      	str	r3, [r7, #80]	@ 0x50
 80041f4:	6d3b      	ldr	r3, [r7, #80]	@ 0x50
 80041f6:	2b00      	cmp	r3, #0
 80041f8:	d1e3      	bne.n	80041c2 <HAL_UART_IRQHandler+0x37e>
 80041fa:	687b      	ldr	r3, [r7, #4]
 80041fc:	6bdb      	ldr	r3, [r3, #60]	@ 0x3c
 80041fe:	4618      	mov	r0, r3
 8004200:	f7fe f910 	bl	8002424 <HAL_DMA_Abort>
 8004204:	687b      	ldr	r3, [r7, #4]
 8004206:	2202      	movs	r2, #2
 8004208:	635a      	str	r2, [r3, #52]	@ 0x34
 800420a:	687b      	ldr	r3, [r7, #4]
 800420c:	8d9a      	ldrh	r2, [r3, #44]	@ 0x2c
 800420e:	687b      	ldr	r3, [r7, #4]
 8004210:	8ddb      	ldrh	r3, [r3, #46]	@ 0x2e
 8004212:	b29b      	uxth	r3, r3
 8004214:	1ad3      	subs	r3, r2, r3
 8004216:	b29b      	uxth	r3, r3
 8004218:	4619      	mov	r1, r3
 800421a:	6878      	ldr	r0, [r7, #4]
 800421c:	f7fc fa10 	bl	8000640 <HAL_UARTEx_RxEventCallback>
 8004220:	e09c      	b.n	800435c <HAL_UART_IRQHandler+0x518>
 8004222:	bf00      	nop
 8004224:	080048a7 	.word	0x080048a7
 8004228:	687b      	ldr	r3, [r7, #4]
 800422a:	8d9a      	ldrh	r2, [r3, #44]	@ 0x2c
 800422c:	687b      	ldr	r3, [r7, #4]
 800422e:	8ddb      	ldrh	r3, [r3, #46]	@ 0x2e
 8004230:	b29b      	uxth	r3, r3
 8004232:	1ad3      	subs	r3, r2, r3
 8004234:	f8a7 30ce 	strh.w	r3, [r7, #206]	@ 0xce
 8004238:	687b      	ldr	r3, [r7, #4]
 800423a:	8ddb      	ldrh	r3, [r3, #46]	@ 0x2e
 800423c:	b29b      	uxth	r3, r3
 800423e:	2b00      	cmp	r3, #0
 8004240:	f000 808e 	beq.w	8004360 <HAL_UART_IRQHandler+0x51c>
 8004244:	f8b7 30ce 	ldrh.w	r3, [r7, #206]	@ 0xce
 8004248:	2b00      	cmp	r3, #0
 800424a:	f000 8089 	beq.w	8004360 <HAL_UART_IRQHandler+0x51c>
 800424e:	687b      	ldr	r3, [r7, #4]
 8004250:	681b      	ldr	r3, [r3, #0]
 8004252:	330c      	adds	r3, #12
 8004254:	63bb      	str	r3, [r7, #56]	@ 0x38
 8004256:	6bbb      	ldr	r3, [r7, #56]	@ 0x38
 8004258:	e853 3f00 	ldrex	r3, [r3]
 800425c:	637b      	str	r3, [r7, #52]	@ 0x34
 800425e:	6b7b      	ldr	r3, [r7, #52]	@ 0x34
 8004260:	f423 7390 	bic.w	r3, r3, #288	@ 0x120
 8004264:	f8c7 30c8 	str.w	r3, [r7, #200]	@ 0xc8
 8004268:	687b      	ldr	r3, [r7, #4]
 800426a:	681b      	ldr	r3, [r3, #0]
 800426c:	330c      	adds	r3, #12
 800426e:	f8d7 20c8 	ldr.w	r2, [r7, #200]	@ 0xc8
 8004272:	647a      	str	r2, [r7, #68]	@ 0x44
 8004274:	643b      	str	r3, [r7, #64]	@ 0x40
 8004276:	6c39      	ldr	r1, [r7, #64]	@ 0x40
 8004278:	6c7a      	ldr	r2, [r7, #68]	@ 0x44
 800427a:	e841 2300 	strex	r3, r2, [r1]
 800427e:	63fb      	str	r3, [r7, #60]	@ 0x3c
 8004280:	6bfb      	ldr	r3, [r7, #60]	@ 0x3c
 8004282:	2b00      	cmp	r3, #0
 8004284:	d1e3      	bne.n	800424e <HAL_UART_IRQHandler+0x40a>
 8004286:	687b      	ldr	r3, [r7, #4]
 8004288:	681b      	ldr	r3, [r3, #0]
 800428a:	3314      	adds	r3, #20
 800428c:	627b      	str	r3, [r7, #36]	@ 0x24
 800428e:	6a7b      	ldr	r3, [r7, #36]	@ 0x24
 8004290:	e853 3f00 	ldrex	r3, [r3]
 8004294:	623b      	str	r3, [r7, #32]
 8004296:	6a3b      	ldr	r3, [r7, #32]
 8004298:	f023 0301 	bic.w	r3, r3, #1
 800429c:	f8c7 30c4 	str.w	r3, [r7, #196]	@ 0xc4
 80042a0:	687b      	ldr	r3, [r7, #4]
 80042a2:	681b      	ldr	r3, [r3, #0]
 80042a4:	3314      	adds	r3, #20
 80042a6:	f8d7 20c4 	ldr.w	r2, [r7, #196]	@ 0xc4
 80042aa:	633a      	str	r2, [r7, #48]	@ 0x30
 80042ac:	62fb      	str	r3, [r7, #44]	@ 0x2c
 80042ae:	6af9      	ldr	r1, [r7, #44]	@ 0x2c
 80042b0:	6b3a      	ldr	r2, [r7, #48]	@ 0x30
 80042b2:	e841 2300 	strex	r3, r2, [r1]
 80042b6:	62bb      	str	r3, [r7, #40]	@ 0x28
 80042b8:	6abb      	ldr	r3, [r7, #40]	@ 0x28
 80042ba:	2b00      	cmp	r3, #0
 80042bc:	d1e3      	bne.n	8004286 <HAL_UART_IRQHandler+0x442>
 80042be:	687b      	ldr	r3, [r7, #4]
 80042c0:	2220      	movs	r2, #32
 80042c2:	f883 2042 	strb.w	r2, [r3, #66]	@ 0x42
 80042c6:	687b      	ldr	r3, [r7, #4]
 80042c8:	2200      	movs	r2, #0
 80042ca:	631a      	str	r2, [r3, #48]	@ 0x30
 80042cc:	687b      	ldr	r3, [r7, #4]
 80042ce:	681b      	ldr	r3, [r3, #0]
 80042d0:	330c      	adds	r3, #12
 80042d2:	613b      	str	r3, [r7, #16]
 80042d4:	693b      	ldr	r3, [r7, #16]
 80042d6:	e853 3f00 	ldrex	r3, [r3]
 80042da:	60fb      	str	r3, [r7, #12]
 80042dc:	68fb      	ldr	r3, [r7, #12]
 80042de:	f023 0310 	bic.w	r3, r3, #16
 80042e2:	f8c7 30c0 	str.w	r3, [r7, #192]	@ 0xc0
 80042e6:	687b      	ldr	r3, [r7, #4]
 80042e8:	681b      	ldr	r3, [r3, #0]
 80042ea:	330c      	adds	r3, #12
 80042ec:	f8d7 20c0 	ldr.w	r2, [r7, #192]	@ 0xc0
 80042f0:	61fa      	str	r2, [r7, #28]
 80042f2:	61bb      	str	r3, [r7, #24]
 80042f4:	69b9      	ldr	r1, [r7, #24]
 80042f6:	69fa      	ldr	r2, [r7, #28]
 80042f8:	e841 2300 	strex	r3, r2, [r1]
 80042fc:	617b      	str	r3, [r7, #20]
 80042fe:	697b      	ldr	r3, [r7, #20]
 8004300:	2b00      	cmp	r3, #0
 8004302:	d1e3      	bne.n	80042cc <HAL_UART_IRQHandler+0x488>
 8004304:	687b      	ldr	r3, [r7, #4]
 8004306:	2202      	movs	r2, #2
 8004308:	635a      	str	r2, [r3, #52]	@ 0x34
 800430a:	f8b7 30ce 	ldrh.w	r3, [r7, #206]	@ 0xce
 800430e:	4619      	mov	r1, r3
 8004310:	6878      	ldr	r0, [r7, #4]
 8004312:	f7fc f995 	bl	8000640 <HAL_UARTEx_RxEventCallback>
 8004316:	e023      	b.n	8004360 <HAL_UART_IRQHandler+0x51c>
 8004318:	f8d7 30e4 	ldr.w	r3, [r7, #228]	@ 0xe4
 800431c:	f003 0380 	and.w	r3, r3, #128	@ 0x80
 8004320:	2b00      	cmp	r3, #0
 8004322:	d009      	beq.n	8004338 <HAL_UART_IRQHandler+0x4f4>
 8004324:	f8d7 30e0 	ldr.w	r3, [r7, #224]	@ 0xe0
 8004328:	f003 0380 	and.w	r3, r3, #128	@ 0x80
 800432c:	2b00      	cmp	r3, #0
 800432e:	d003      	beq.n	8004338 <HAL_UART_IRQHandler+0x4f4>
 8004330:	6878      	ldr	r0, [r7, #4]
 8004332:	f000 facc 	bl	80048ce <UART_Transmit_IT>
 8004336:	e014      	b.n	8004362 <HAL_UART_IRQHandler+0x51e>
 8004338:	f8d7 30e4 	ldr.w	r3, [r7, #228]	@ 0xe4
 800433c:	f003 0340 	and.w	r3, r3, #64	@ 0x40
 8004340:	2b00      	cmp	r3, #0
 8004342:	d00e      	beq.n	8004362 <HAL_UART_IRQHandler+0x51e>
 8004344:	f8d7 30e0 	ldr.w	r3, [r7, #224]	@ 0xe0
 8004348:	f003 0340 	and.w	r3, r3, #64	@ 0x40
 800434c:	2b00      	cmp	r3, #0
 800434e:	d008      	beq.n	8004362 <HAL_UART_IRQHandler+0x51e>
 8004350:	6878      	ldr	r0, [r7, #4]
 8004352:	f000 fb0b 	bl	800496c <UART_EndTransmit_IT>
 8004356:	e004      	b.n	8004362 <HAL_UART_IRQHandler+0x51e>
 8004358:	bf00      	nop
 800435a:	e002      	b.n	8004362 <HAL_UART_IRQHandler+0x51e>
 800435c:	bf00      	nop
 800435e:	e000      	b.n	8004362 <HAL_UART_IRQHandler+0x51e>
 8004360:	bf00      	nop
 8004362:	37e8      	adds	r7, #232	@ 0xe8
 8004364:	46bd      	mov	sp, r7
 8004366:	bd80      	pop	{r7, pc}

08004368 <HAL_UART_TxCpltCallback>:
 8004368:	b480      	push	{r7}
 800436a:	b083      	sub	sp, #12
 800436c:	af00      	add	r7, sp, #0
 800436e:	6078      	str	r0, [r7, #4]
 8004370:	bf00      	nop
 8004372:	370c      	adds	r7, #12
 8004374:	46bd      	mov	sp, r7
 8004376:	bc80      	pop	{r7}
 8004378:	4770      	bx	lr

0800437a <HAL_UART_RxCpltCallback>:
 800437a:	b480      	push	{r7}
 800437c:	b083      	sub	sp, #12
 800437e:	af00      	add	r7, sp, #0
 8004380:	6078      	str	r0, [r7, #4]
 8004382:	bf00      	nop
 8004384:	370c      	adds	r7, #12
 8004386:	46bd      	mov	sp, r7
 8004388:	bc80      	pop	{r7}
 800438a:	4770      	bx	lr

0800438c <HAL_UART_RxHalfCpltCallback>:
 800438c:	b480      	push	{r7}
 800438e:	b083      	sub	sp, #12
 8004390:	af00      	add	r7, sp, #0
 8004392:	6078      	str	r0, [r7, #4]
 8004394:	bf00      	nop
 8004396:	370c      	adds	r7, #12
 8004398:	46bd      	mov	sp, r7
 800439a:	bc80      	pop	{r7}
 800439c:	4770      	bx	lr

0800439e <HAL_UART_ErrorCallback>:
 800439e:	b480      	push	{r7}
 80043a0:	b083      	sub	sp, #12
 80043a2:	af00      	add	r7, sp, #0
 80043a4:	6078      	str	r0, [r7, #4]
 80043a6:	bf00      	nop
 80043a8:	370c      	adds	r7, #12
 80043aa:	46bd      	mov	sp, r7
 80043ac:	bc80      	pop	{r7}
 80043ae:	4770      	bx	lr

080043b0 <UART_DMAReceiveCplt>:
 80043b0:	b580      	push	{r7, lr}
 80043b2:	b09c      	sub	sp, #112	@ 0x70
 80043b4:	af00      	add	r7, sp, #0
 80043b6:	6078      	str	r0, [r7, #4]
 80043b8:	687b      	ldr	r3, [r7, #4]
 80043ba:	6a5b      	ldr	r3, [r3, #36]	@ 0x24
 80043bc:	66fb      	str	r3, [r7, #108]	@ 0x6c
 80043be:	687b      	ldr	r3, [r7, #4]
 80043c0:	681b      	ldr	r3, [r3, #0]
 80043c2:	681b      	ldr	r3, [r3, #0]
 80043c4:	f003 0320 	and.w	r3, r3, #32
 80043c8:	2b00      	cmp	r3, #0
 80043ca:	d172      	bne.n	80044b2 <UART_DMAReceiveCplt+0x102>
 80043cc:	6efb      	ldr	r3, [r7, #108]	@ 0x6c
 80043ce:	2200      	movs	r2, #0
 80043d0:	85da      	strh	r2, [r3, #46]	@ 0x2e
 80043d2:	6efb      	ldr	r3, [r7, #108]	@ 0x6c
 80043d4:	681b      	ldr	r3, [r3, #0]
 80043d6:	330c      	adds	r3, #12
 80043d8:	64fb      	str	r3, [r7, #76]	@ 0x4c
 80043da:	6cfb      	ldr	r3, [r7, #76]	@ 0x4c
 80043dc:	e853 3f00 	ldrex	r3, [r3]
 80043e0:	64bb      	str	r3, [r7, #72]	@ 0x48
 80043e2:	6cbb      	ldr	r3, [r7, #72]	@ 0x48
 80043e4:	f423 7380 	bic.w	r3, r3, #256	@ 0x100
 80043e8:	66bb      	str	r3, [r7, #104]	@ 0x68
 80043ea:	6efb      	ldr	r3, [r7, #108]	@ 0x6c
 80043ec:	681b      	ldr	r3, [r3, #0]
 80043ee:	330c      	adds	r3, #12
 80043f0:	6eba      	ldr	r2, [r7, #104]	@ 0x68
 80043f2:	65ba      	str	r2, [r7, #88]	@ 0x58
 80043f4:	657b      	str	r3, [r7, #84]	@ 0x54
 80043f6:	6d79      	ldr	r1, [r7, #84]	@ 0x54
 80043f8:	6dba      	ldr	r2, [r7, #88]	@ 0x58
 80043fa:	e841 2300 	strex	r3, r2, [r1]
 80043fe:	653b      	str	r3, [r7, #80]	@ 0x50
 8004400:	6d3b      	ldr	r3, [r7, #80]	@ 0x50
 8004402:	2b00      	cmp	r3, #0
 8004404:	d1e5      	bne.n	80043d2 <UART_DMAReceiveCplt+0x22>
 8004406:	6efb      	ldr	r3, [r7, #108]	@ 0x6c
 8004408:	681b      	ldr	r3, [r3, #0]
 800440a:	3314      	adds	r3, #20
 800440c:	63bb      	str	r3, [r7, #56]	@ 0x38
 800440e:	6bbb      	ldr	r3, [r7, #56]	@ 0x38
 8004410:	e853 3f00 	ldrex	r3, [r3]
 8004414:	637b      	str	r3, [r7, #52]	@ 0x34
 8004416:	6b7b      	ldr	r3, [r7, #52]	@ 0x34
 8004418:	f023 0301 	bic.w	r3, r3, #1
 800441c:	667b      	str	r3, [r7, #100]	@ 0x64
 800441e:	6efb      	ldr	r3, [r7, #108]	@ 0x6c
 8004420:	681b      	ldr	r3, [r3, #0]
 8004422:	3314      	adds	r3, #20
 8004424:	6e7a      	ldr	r2, [r7, #100]	@ 0x64
 8004426:	647a      	str	r2, [r7, #68]	@ 0x44
 8004428:	643b      	str	r3, [r7, #64]	@ 0x40
 800442a:	6c39      	ldr	r1, [r7, #64]	@ 0x40
 800442c:	6c7a      	ldr	r2, [r7, #68]	@ 0x44
 800442e:	e841 2300 	strex	r3, r2, [r1]
 8004432:	63fb      	str	r3, [r7, #60]	@ 0x3c
 8004434:	6bfb      	ldr	r3, [r7, #60]	@ 0x3c
 8004436:	2b00      	cmp	r3, #0
 8004438:	d1e5      	bne.n	8004406 <UART_DMAReceiveCplt+0x56>
 800443a:	6efb      	ldr	r3, [r7, #108]	@ 0x6c
 800443c:	681b      	ldr	r3, [r3, #0]
 800443e:	3314      	adds	r3, #20
 8004440:	627b      	str	r3, [r7, #36]	@ 0x24
 8004442:	6a7b      	ldr	r3, [r7, #36]	@ 0x24
 8004444:	e853 3f00 	ldrex	r3, [r3]
 8004448:	623b      	str	r3, [r7, #32]
 800444a:	6a3b      	ldr	r3, [r7, #32]
 800444c:	f023 0340 	bic.w	r3, r3, #64	@ 0x40
 8004450:	663b      	str	r3, [r7, #96]	@ 0x60
 8004452:	6efb      	ldr	r3, [r7, #108]	@ 0x6c
 8004454:	681b      	ldr	r3, [r3, #0]
 8004456:	3314      	adds	r3, #20
 8004458:	6e3a      	ldr	r2, [r7, #96]	@ 0x60
 800445a:	633a      	str	r2, [r7, #48]	@ 0x30
 800445c:	62fb      	str	r3, [r7, #44]	@ 0x2c
 800445e:	6af9      	ldr	r1, [r7, #44]	@ 0x2c
 8004460:	6b3a      	ldr	r2, [r7, #48]	@ 0x30
 8004462:	e841 2300 	strex	r3, r2, [r1]
 8004466:	62bb      	str	r3, [r7, #40]	@ 0x28
 8004468:	6abb      	ldr	r3, [r7, #40]	@ 0x28
 800446a:	2b00      	cmp	r3, #0
 800446c:	d1e5      	bne.n	800443a <UART_DMAReceiveCplt+0x8a>
 800446e:	6efb      	ldr	r3, [r7, #108]	@ 0x6c
 8004470:	2220      	movs	r2, #32
 8004472:	f883 2042 	strb.w	r2, [r3, #66]	@ 0x42
 8004476:	6efb      	ldr	r3, [r7, #108]	@ 0x6c
 8004478:	6b1b      	ldr	r3, [r3, #48]	@ 0x30
 800447a:	2b01      	cmp	r3, #1
 800447c:	d119      	bne.n	80044b2 <UART_DMAReceiveCplt+0x102>
 800447e:	6efb      	ldr	r3, [r7, #108]	@ 0x6c
 8004480:	681b      	ldr	r3, [r3, #0]
 8004482:	330c      	adds	r3, #12
 8004484:	613b      	str	r3, [r7, #16]
 8004486:	693b      	ldr	r3, [r7, #16]
 8004488:	e853 3f00 	ldrex	r3, [r3]
 800448c:	60fb      	str	r3, [r7, #12]
 800448e:	68fb      	ldr	r3, [r7, #12]
 8004490:	f023 0310 	bic.w	r3, r3, #16
 8004494:	65fb      	str	r3, [r7, #92]	@ 0x5c
 8004496:	6efb      	ldr	r3, [r7, #108]	@ 0x6c
 8004498:	681b      	ldr	r3, [r3, #0]
 800449a:	330c      	adds	r3, #12
 800449c:	6dfa      	ldr	r2, [r7, #92]	@ 0x5c
 800449e:	61fa      	str	r2, [r7, #28]
 80044a0:	61bb      	str	r3, [r7, #24]
 80044a2:	69b9      	ldr	r1, [r7, #24]
 80044a4:	69fa      	ldr	r2, [r7, #28]
 80044a6:	e841 2300 	strex	r3, r2, [r1]
 80044aa:	617b      	str	r3, [r7, #20]
 80044ac:	697b      	ldr	r3, [r7, #20]
 80044ae:	2b00      	cmp	r3, #0
 80044b0:	d1e5      	bne.n	800447e <UART_DMAReceiveCplt+0xce>
 80044b2:	6efb      	ldr	r3, [r7, #108]	@ 0x6c
 80044b4:	2200      	movs	r2, #0
 80044b6:	635a      	str	r2, [r3, #52]	@ 0x34
 80044b8:	6efb      	ldr	r3, [r7, #108]	@ 0x6c
 80044ba:	6b1b      	ldr	r3, [r3, #48]	@ 0x30
 80044bc:	2b01      	cmp	r3, #1
 80044be:	d106      	bne.n	80044ce <UART_DMAReceiveCplt+0x11e>
 80044c0:	6efb      	ldr	r3, [r7, #108]	@ 0x6c
 80044c2:	8d9b      	ldrh	r3, [r3, #44]	@ 0x2c
 80044c4:	4619      	mov	r1, r3
 80044c6:	6ef8      	ldr	r0, [r7, #108]	@ 0x6c
 80044c8:	f7fc f8ba 	bl	8000640 <HAL_UARTEx_RxEventCallback>
 80044cc:	e002      	b.n	80044d4 <UART_DMAReceiveCplt+0x124>
 80044ce:	6ef8      	ldr	r0, [r7, #108]	@ 0x6c
 80044d0:	f7ff ff53 	bl	800437a <HAL_UART_RxCpltCallback>
 80044d4:	bf00      	nop
 80044d6:	3770      	adds	r7, #112	@ 0x70
 80044d8:	46bd      	mov	sp, r7
 80044da:	bd80      	pop	{r7, pc}

080044dc <UART_DMARxHalfCplt>:
 80044dc:	b580      	push	{r7, lr}
 80044de:	b084      	sub	sp, #16
 80044e0:	af00      	add	r7, sp, #0
 80044e2:	6078      	str	r0, [r7, #4]
 80044e4:	687b      	ldr	r3, [r7, #4]
 80044e6:	6a5b      	ldr	r3, [r3, #36]	@ 0x24
 80044e8:	60fb      	str	r3, [r7, #12]
 80044ea:	68fb      	ldr	r3, [r7, #12]
 80044ec:	2201      	movs	r2, #1
 80044ee:	635a      	str	r2, [r3, #52]	@ 0x34
 80044f0:	68fb      	ldr	r3, [r7, #12]
 80044f2:	6b1b      	ldr	r3, [r3, #48]	@ 0x30
 80044f4:	2b01      	cmp	r3, #1
 80044f6:	d108      	bne.n	800450a <UART_DMARxHalfCplt+0x2e>
 80044f8:	68fb      	ldr	r3, [r7, #12]
 80044fa:	8d9b      	ldrh	r3, [r3, #44]	@ 0x2c
 80044fc:	085b      	lsrs	r3, r3, #1
 80044fe:	b29b      	uxth	r3, r3
 8004500:	4619      	mov	r1, r3
 8004502:	68f8      	ldr	r0, [r7, #12]
 8004504:	f7fc f89c 	bl	8000640 <HAL_UARTEx_RxEventCallback>
 8004508:	e002      	b.n	8004510 <UART_DMARxHalfCplt+0x34>
 800450a:	68f8      	ldr	r0, [r7, #12]
 800450c:	f7ff ff3e 	bl	800438c <HAL_UART_RxHalfCpltCallback>
 8004510:	bf00      	nop
 8004512:	3710      	adds	r7, #16
 8004514:	46bd      	mov	sp, r7
 8004516:	bd80      	pop	{r7, pc}

08004518 <UART_DMAError>:
 8004518:	b580      	push	{r7, lr}
 800451a:	b084      	sub	sp, #16
 800451c:	af00      	add	r7, sp, #0
 800451e:	6078      	str	r0, [r7, #4]
 8004520:	2300      	movs	r3, #0
 8004522:	60fb      	str	r3, [r7, #12]
 8004524:	687b      	ldr	r3, [r7, #4]
 8004526:	6a5b      	ldr	r3, [r3, #36]	@ 0x24
 8004528:	60bb      	str	r3, [r7, #8]
 800452a:	68bb      	ldr	r3, [r7, #8]
 800452c:	681b      	ldr	r3, [r3, #0]
 800452e:	695b      	ldr	r3, [r3, #20]
 8004530:	f003 0380 	and.w	r3, r3, #128	@ 0x80
 8004534:	2b00      	cmp	r3, #0
 8004536:	bf14      	ite	ne
 8004538:	2301      	movne	r3, #1
 800453a:	2300      	moveq	r3, #0
 800453c:	b2db      	uxtb	r3, r3
 800453e:	60fb      	str	r3, [r7, #12]
 8004540:	68bb      	ldr	r3, [r7, #8]
 8004542:	f893 3041 	ldrb.w	r3, [r3, #65]	@ 0x41
 8004546:	b2db      	uxtb	r3, r3
 8004548:	2b21      	cmp	r3, #33	@ 0x21
 800454a:	d108      	bne.n	800455e <UART_DMAError+0x46>
 800454c:	68fb      	ldr	r3, [r7, #12]
 800454e:	2b00      	cmp	r3, #0
 8004550:	d005      	beq.n	800455e <UART_DMAError+0x46>
 8004552:	68bb      	ldr	r3, [r7, #8]
 8004554:	2200      	movs	r2, #0
 8004556:	84da      	strh	r2, [r3, #38]	@ 0x26
 8004558:	68b8      	ldr	r0, [r7, #8]
 800455a:	f000 f91b 	bl	8004794 <UART_EndTxTransfer>
 800455e:	68bb      	ldr	r3, [r7, #8]
 8004560:	681b      	ldr	r3, [r3, #0]
 8004562:	695b      	ldr	r3, [r3, #20]
 8004564:	f003 0340 	and.w	r3, r3, #64	@ 0x40
 8004568:	2b00      	cmp	r3, #0
 800456a:	bf14      	ite	ne
 800456c:	2301      	movne	r3, #1
 800456e:	2300      	moveq	r3, #0
 8004570:	b2db      	uxtb	r3, r3
 8004572:	60fb      	str	r3, [r7, #12]
 8004574:	68bb      	ldr	r3, [r7, #8]
 8004576:	f893 3042 	ldrb.w	r3, [r3, #66]	@ 0x42
 800457a:	b2db      	uxtb	r3, r3
 800457c:	2b22      	cmp	r3, #34	@ 0x22
 800457e:	d108      	bne.n	8004592 <UART_DMAError+0x7a>
 8004580:	68fb      	ldr	r3, [r7, #12]
 8004582:	2b00      	cmp	r3, #0
 8004584:	d005      	beq.n	8004592 <UART_DMAError+0x7a>
 8004586:	68bb      	ldr	r3, [r7, #8]
 8004588:	2200      	movs	r2, #0
 800458a:	85da      	strh	r2, [r3, #46]	@ 0x2e
 800458c:	68b8      	ldr	r0, [r7, #8]
 800458e:	f000 f928 	bl	80047e2 <UART_EndRxTransfer>
 8004592:	68bb      	ldr	r3, [r7, #8]
 8004594:	6c5b      	ldr	r3, [r3, #68]	@ 0x44
 8004596:	f043 0210 	orr.w	r2, r3, #16
 800459a:	68bb      	ldr	r3, [r7, #8]
 800459c:	645a      	str	r2, [r3, #68]	@ 0x44
 800459e:	68b8      	ldr	r0, [r7, #8]
 80045a0:	f7ff fefd 	bl	800439e <HAL_UART_ErrorCallback>
 80045a4:	bf00      	nop
 80045a6:	3710      	adds	r7, #16
 80045a8:	46bd      	mov	sp, r7
 80045aa:	bd80      	pop	{r7, pc}

080045ac <UART_WaitOnFlagUntilTimeout>:
 80045ac:	b580      	push	{r7, lr}
 80045ae:	b086      	sub	sp, #24
 80045b0:	af00      	add	r7, sp, #0
 80045b2:	60f8      	str	r0, [r7, #12]
 80045b4:	60b9      	str	r1, [r7, #8]
 80045b6:	603b      	str	r3, [r7, #0]
 80045b8:	4613      	mov	r3, r2
 80045ba:	71fb      	strb	r3, [r7, #7]
 80045bc:	e03b      	b.n	8004636 <UART_WaitOnFlagUntilTimeout+0x8a>
 80045be:	6a3b      	ldr	r3, [r7, #32]
 80045c0:	f1b3 3fff 	cmp.w	r3, #4294967295
 80045c4:	d037      	beq.n	8004636 <UART_WaitOnFlagUntilTimeout+0x8a>
 80045c6:	f7fc ffab 	bl	8001520 <HAL_GetTick>
 80045ca:	4602      	mov	r2, r0
 80045cc:	683b      	ldr	r3, [r7, #0]
 80045ce:	1ad3      	subs	r3, r2, r3
 80045d0:	6a3a      	ldr	r2, [r7, #32]
 80045d2:	429a      	cmp	r2, r3
 80045d4:	d302      	bcc.n	80045dc <UART_WaitOnFlagUntilTimeout+0x30>
 80045d6:	6a3b      	ldr	r3, [r7, #32]
 80045d8:	2b00      	cmp	r3, #0
 80045da:	d101      	bne.n	80045e0 <UART_WaitOnFlagUntilTimeout+0x34>
 80045dc:	2303      	movs	r3, #3
 80045de:	e03a      	b.n	8004656 <UART_WaitOnFlagUntilTimeout+0xaa>
 80045e0:	68fb      	ldr	r3, [r7, #12]
 80045e2:	681b      	ldr	r3, [r3, #0]
 80045e4:	68db      	ldr	r3, [r3, #12]
 80045e6:	f003 0304 	and.w	r3, r3, #4
 80045ea:	2b00      	cmp	r3, #0
 80045ec:	d023      	beq.n	8004636 <UART_WaitOnFlagUntilTimeout+0x8a>
 80045ee:	68bb      	ldr	r3, [r7, #8]
 80045f0:	2b80      	cmp	r3, #128	@ 0x80
 80045f2:	d020      	beq.n	8004636 <UART_WaitOnFlagUntilTimeout+0x8a>
 80045f4:	68bb      	ldr	r3, [r7, #8]
 80045f6:	2b40      	cmp	r3, #64	@ 0x40
 80045f8:	d01d      	beq.n	8004636 <UART_WaitOnFlagUntilTimeout+0x8a>
 80045fa:	68fb      	ldr	r3, [r7, #12]
 80045fc:	681b      	ldr	r3, [r3, #0]
 80045fe:	681b      	ldr	r3, [r3, #0]
 8004600:	f003 0308 	and.w	r3, r3, #8
 8004604:	2b08      	cmp	r3, #8
 8004606:	d116      	bne.n	8004636 <UART_WaitOnFlagUntilTimeout+0x8a>
 8004608:	2300      	movs	r3, #0
 800460a:	617b      	str	r3, [r7, #20]
 800460c:	68fb      	ldr	r3, [r7, #12]
 800460e:	681b      	ldr	r3, [r3, #0]
 8004610:	681b      	ldr	r3, [r3, #0]
 8004612:	617b      	str	r3, [r7, #20]
 8004614:	68fb      	ldr	r3, [r7, #12]
 8004616:	681b      	ldr	r3, [r3, #0]
 8004618:	685b      	ldr	r3, [r3, #4]
 800461a:	617b      	str	r3, [r7, #20]
 800461c:	697b      	ldr	r3, [r7, #20]
 800461e:	68f8      	ldr	r0, [r7, #12]
 8004620:	f000 f8df 	bl	80047e2 <UART_EndRxTransfer>
 8004624:	68fb      	ldr	r3, [r7, #12]
 8004626:	2208      	movs	r2, #8
 8004628:	645a      	str	r2, [r3, #68]	@ 0x44
 800462a:	68fb      	ldr	r3, [r7, #12]
 800462c:	2200      	movs	r2, #0
 800462e:	f883 2040 	strb.w	r2, [r3, #64]	@ 0x40
 8004632:	2301      	movs	r3, #1
 8004634:	e00f      	b.n	8004656 <UART_WaitOnFlagUntilTimeout+0xaa>
 8004636:	68fb      	ldr	r3, [r7, #12]
 8004638:	681b      	ldr	r3, [r3, #0]
 800463a:	681a      	ldr	r2, [r3, #0]
 800463c:	68bb      	ldr	r3, [r7, #8]
 800463e:	4013      	ands	r3, r2
 8004640:	68ba      	ldr	r2, [r7, #8]
 8004642:	429a      	cmp	r2, r3
 8004644:	bf0c      	ite	eq
 8004646:	2301      	moveq	r3, #1
 8004648:	2300      	movne	r3, #0
 800464a:	b2db      	uxtb	r3, r3
 800464c:	461a      	mov	r2, r3
 800464e:	79fb      	ldrb	r3, [r7, #7]
 8004650:	429a      	cmp	r2, r3
 8004652:	d0b4      	beq.n	80045be <UART_WaitOnFlagUntilTimeout+0x12>
 8004654:	2300      	movs	r3, #0
 8004656:	4618      	mov	r0, r3
 8004658:	3718      	adds	r7, #24
 800465a:	46bd      	mov	sp, r7
 800465c:	bd80      	pop	{r7, pc}
	...

08004660 <UART_Start_Receive_DMA>:
 8004660:	b580      	push	{r7, lr}
 8004662:	b098      	sub	sp, #96	@ 0x60
 8004664:	af00      	add	r7, sp, #0
 8004666:	60f8      	str	r0, [r7, #12]
 8004668:	60b9      	str	r1, [r7, #8]
 800466a:	4613      	mov	r3, r2
 800466c:	80fb      	strh	r3, [r7, #6]
 800466e:	68ba      	ldr	r2, [r7, #8]
 8004670:	68fb      	ldr	r3, [r7, #12]
 8004672:	629a      	str	r2, [r3, #40]	@ 0x28
 8004674:	68fb      	ldr	r3, [r7, #12]
 8004676:	88fa      	ldrh	r2, [r7, #6]
 8004678:	859a      	strh	r2, [r3, #44]	@ 0x2c
 800467a:	68fb      	ldr	r3, [r7, #12]
 800467c:	2200      	movs	r2, #0
 800467e:	645a      	str	r2, [r3, #68]	@ 0x44
 8004680:	68fb      	ldr	r3, [r7, #12]
 8004682:	2222      	movs	r2, #34	@ 0x22
 8004684:	f883 2042 	strb.w	r2, [r3, #66]	@ 0x42
 8004688:	68fb      	ldr	r3, [r7, #12]
 800468a:	6bdb      	ldr	r3, [r3, #60]	@ 0x3c
 800468c:	4a3e      	ldr	r2, [pc, #248]	@ (8004788 <UART_Start_Receive_DMA+0x128>)
 800468e:	629a      	str	r2, [r3, #40]	@ 0x28
 8004690:	68fb      	ldr	r3, [r7, #12]
 8004692:	6bdb      	ldr	r3, [r3, #60]	@ 0x3c
 8004694:	4a3d      	ldr	r2, [pc, #244]	@ (800478c <UART_Start_Receive_DMA+0x12c>)
 8004696:	62da      	str	r2, [r3, #44]	@ 0x2c
 8004698:	68fb      	ldr	r3, [r7, #12]
 800469a:	6bdb      	ldr	r3, [r3, #60]	@ 0x3c
 800469c:	4a3c      	ldr	r2, [pc, #240]	@ (8004790 <UART_Start_Receive_DMA+0x130>)
 800469e:	631a      	str	r2, [r3, #48]	@ 0x30
 80046a0:	68fb      	ldr	r3, [r7, #12]
 80046a2:	6bdb      	ldr	r3, [r3, #60]	@ 0x3c
 80046a4:	2200      	movs	r2, #0
 80046a6:	635a      	str	r2, [r3, #52]	@ 0x34
 80046a8:	f107 0308 	add.w	r3, r7, #8
 80046ac:	65fb      	str	r3, [r7, #92]	@ 0x5c
 80046ae:	68fb      	ldr	r3, [r7, #12]
 80046b0:	6bd8      	ldr	r0, [r3, #60]	@ 0x3c
 80046b2:	68fb      	ldr	r3, [r7, #12]
 80046b4:	681b      	ldr	r3, [r3, #0]
 80046b6:	3304      	adds	r3, #4
 80046b8:	4619      	mov	r1, r3
 80046ba:	6dfb      	ldr	r3, [r7, #92]	@ 0x5c
 80046bc:	681a      	ldr	r2, [r3, #0]
 80046be:	88fb      	ldrh	r3, [r7, #6]
 80046c0:	f7fd fe50 	bl	8002364 <HAL_DMA_Start_IT>
 80046c4:	2300      	movs	r3, #0
 80046c6:	613b      	str	r3, [r7, #16]
 80046c8:	68fb      	ldr	r3, [r7, #12]
 80046ca:	681b      	ldr	r3, [r3, #0]
 80046cc:	681b      	ldr	r3, [r3, #0]
 80046ce:	613b      	str	r3, [r7, #16]
 80046d0:	68fb      	ldr	r3, [r7, #12]
 80046d2:	681b      	ldr	r3, [r3, #0]
 80046d4:	685b      	ldr	r3, [r3, #4]
 80046d6:	613b      	str	r3, [r7, #16]
 80046d8:	693b      	ldr	r3, [r7, #16]
 80046da:	68fb      	ldr	r3, [r7, #12]
 80046dc:	691b      	ldr	r3, [r3, #16]
 80046de:	2b00      	cmp	r3, #0
 80046e0:	d019      	beq.n	8004716 <UART_Start_Receive_DMA+0xb6>
 80046e2:	68fb      	ldr	r3, [r7, #12]
 80046e4:	681b      	ldr	r3, [r3, #0]
 80046e6:	330c      	adds	r3, #12
 80046e8:	643b      	str	r3, [r7, #64]	@ 0x40
 80046ea:	6c3b      	ldr	r3, [r7, #64]	@ 0x40
 80046ec:	e853 3f00 	ldrex	r3, [r3]
 80046f0:	63fb      	str	r3, [r7, #60]	@ 0x3c
 80046f2:	6bfb      	ldr	r3, [r7, #60]	@ 0x3c
 80046f4:	f443 7380 	orr.w	r3, r3, #256	@ 0x100
 80046f8:	65bb      	str	r3, [r7, #88]	@ 0x58
 80046fa:	68fb      	ldr	r3, [r7, #12]
 80046fc:	681b      	ldr	r3, [r3, #0]
 80046fe:	330c      	adds	r3, #12
 8004700:	6dba      	ldr	r2, [r7, #88]	@ 0x58
 8004702:	64fa      	str	r2, [r7, #76]	@ 0x4c
 8004704:	64bb      	str	r3, [r7, #72]	@ 0x48
 8004706:	6cb9      	ldr	r1, [r7, #72]	@ 0x48
 8004708:	6cfa      	ldr	r2, [r7, #76]	@ 0x4c
 800470a:	e841 2300 	strex	r3, r2, [r1]
 800470e:	647b      	str	r3, [r7, #68]	@ 0x44
 8004710:	6c7b      	ldr	r3, [r7, #68]	@ 0x44
 8004712:	2b00      	cmp	r3, #0
 8004714:	d1e5      	bne.n	80046e2 <UART_Start_Receive_DMA+0x82>
 8004716:	68fb      	ldr	r3, [r7, #12]
 8004718:	681b      	ldr	r3, [r3, #0]
 800471a:	3314      	adds	r3, #20
 800471c:	62fb      	str	r3, [r7, #44]	@ 0x2c
 800471e:	6afb      	ldr	r3, [r7, #44]	@ 0x2c
 8004720:	e853 3f00 	ldrex	r3, [r3]
 8004724:	62bb      	str	r3, [r7, #40]	@ 0x28
 8004726:	6abb      	ldr	r3, [r7, #40]	@ 0x28
 8004728:	f043 0301 	orr.w	r3, r3, #1
 800472c:	657b      	str	r3, [r7, #84]	@ 0x54
 800472e:	68fb      	ldr	r3, [r7, #12]
 8004730:	681b      	ldr	r3, [r3, #0]
 8004732:	3314      	adds	r3, #20
 8004734:	6d7a      	ldr	r2, [r7, #84]	@ 0x54
 8004736:	63ba      	str	r2, [r7, #56]	@ 0x38
 8004738:	637b      	str	r3, [r7, #52]	@ 0x34
 800473a:	6b79      	ldr	r1, [r7, #52]	@ 0x34
 800473c:	6bba      	ldr	r2, [r7, #56]	@ 0x38
 800473e:	e841 2300 	strex	r3, r2, [r1]
 8004742:	633b      	str	r3, [r7, #48]	@ 0x30
 8004744:	6b3b      	ldr	r3, [r7, #48]	@ 0x30
 8004746:	2b00      	cmp	r3, #0
 8004748:	d1e5      	bne.n	8004716 <UART_Start_Receive_DMA+0xb6>
 800474a:	68fb      	ldr	r3, [r7, #12]
 800474c:	681b      	ldr	r3, [r3, #0]
 800474e:	3314      	adds	r3, #20
 8004750:	61bb      	str	r3, [r7, #24]
 8004752:	69bb      	ldr	r3, [r7, #24]
 8004754:	e853 3f00 	ldrex	r3, [r3]
 8004758:	617b      	str	r3, [r7, #20]
 800475a:	697b      	ldr	r3, [r7, #20]
 800475c:	f043 0340 	orr.w	r3, r3, #64	@ 0x40
 8004760:	653b      	str	r3, [r7, #80]	@ 0x50
 8004762:	68fb      	ldr	r3, [r7, #12]
 8004764:	681b      	ldr	r3, [r3, #0]
 8004766:	3314      	adds	r3, #20
 8004768:	6d3a      	ldr	r2, [r7, #80]	@ 0x50
 800476a:	627a      	str	r2, [r7, #36]	@ 0x24
 800476c:	623b      	str	r3, [r7, #32]
 800476e:	6a39      	ldr	r1, [r7, #32]
 8004770:	6a7a      	ldr	r2, [r7, #36]	@ 0x24
 8004772:	e841 2300 	strex	r3, r2, [r1]
 8004776:	61fb      	str	r3, [r7, #28]
 8004778:	69fb      	ldr	r3, [r7, #28]
 800477a:	2b00      	cmp	r3, #0
 800477c:	d1e5      	bne.n	800474a <UART_Start_Receive_DMA+0xea>
 800477e:	2300      	movs	r3, #0
 8004780:	4618      	mov	r0, r3
 8004782:	3760      	adds	r7, #96	@ 0x60
 8004784:	46bd      	mov	sp, r7
 8004786:	bd80      	pop	{r7, pc}
 8004788:	080043b1 	.word	0x080043b1
 800478c:	080044dd 	.word	0x080044dd
 8004790:	08004519 	.word	0x08004519

08004794 <UART_EndTxTransfer>:
 8004794:	b480      	push	{r7}
 8004796:	b089      	sub	sp, #36	@ 0x24
 8004798:	af00      	add	r7, sp, #0
 800479a:	6078      	str	r0, [r7, #4]
 800479c:	687b      	ldr	r3, [r7, #4]
 800479e:	681b      	ldr	r3, [r3, #0]
 80047a0:	330c      	adds	r3, #12
 80047a2:	60fb      	str	r3, [r7, #12]
 80047a4:	68fb      	ldr	r3, [r7, #12]
 80047a6:	e853 3f00 	ldrex	r3, [r3]
 80047aa:	60bb      	str	r3, [r7, #8]
 80047ac:	68bb      	ldr	r3, [r7, #8]
 80047ae:	f023 03c0 	bic.w	r3, r3, #192	@ 0xc0
 80047b2:	61fb      	str	r3, [r7, #28]
 80047b4:	687b      	ldr	r3, [r7, #4]
 80047b6:	681b      	ldr	r3, [r3, #0]
 80047b8:	330c      	adds	r3, #12
 80047ba:	69fa      	ldr	r2, [r7, #28]
 80047bc:	61ba      	str	r2, [r7, #24]
 80047be:	617b      	str	r3, [r7, #20]
 80047c0:	6979      	ldr	r1, [r7, #20]
 80047c2:	69ba      	ldr	r2, [r7, #24]
 80047c4:	e841 2300 	strex	r3, r2, [r1]
 80047c8:	613b      	str	r3, [r7, #16]
 80047ca:	693b      	ldr	r3, [r7, #16]
 80047cc:	2b00      	cmp	r3, #0
 80047ce:	d1e5      	bne.n	800479c <UART_EndTxTransfer+0x8>
 80047d0:	687b      	ldr	r3, [r7, #4]
 80047d2:	2220      	movs	r2, #32
 80047d4:	f883 2041 	strb.w	r2, [r3, #65]	@ 0x41
 80047d8:	bf00      	nop
 80047da:	3724      	adds	r7, #36	@ 0x24
 80047dc:	46bd      	mov	sp, r7
 80047de:	bc80      	pop	{r7}
 80047e0:	4770      	bx	lr

080047e2 <UART_EndRxTransfer>:
 80047e2:	b480      	push	{r7}
 80047e4:	b095      	sub	sp, #84	@ 0x54
 80047e6:	af00      	add	r7, sp, #0
 80047e8:	6078      	str	r0, [r7, #4]
 80047ea:	687b      	ldr	r3, [r7, #4]
 80047ec:	681b      	ldr	r3, [r3, #0]
 80047ee:	330c      	adds	r3, #12
 80047f0:	637b      	str	r3, [r7, #52]	@ 0x34
 80047f2:	6b7b      	ldr	r3, [r7, #52]	@ 0x34
 80047f4:	e853 3f00 	ldrex	r3, [r3]
 80047f8:	633b      	str	r3, [r7, #48]	@ 0x30
 80047fa:	6b3b      	ldr	r3, [r7, #48]	@ 0x30
 80047fc:	f423 7390 	bic.w	r3, r3, #288	@ 0x120
 8004800:	64fb      	str	r3, [r7, #76]	@ 0x4c
 8004802:	687b      	ldr	r3, [r7, #4]
 8004804:	681b      	ldr	r3, [r3, #0]
 8004806:	330c      	adds	r3, #12
 8004808:	6cfa      	ldr	r2, [r7, #76]	@ 0x4c
 800480a:	643a      	str	r2, [r7, #64]	@ 0x40
 800480c:	63fb      	str	r3, [r7, #60]	@ 0x3c
 800480e:	6bf9      	ldr	r1, [r7, #60]	@ 0x3c
 8004810:	6c3a      	ldr	r2, [r7, #64]	@ 0x40
 8004812:	e841 2300 	strex	r3, r2, [r1]
 8004816:	63bb      	str	r3, [r7, #56]	@ 0x38
 8004818:	6bbb      	ldr	r3, [r7, #56]	@ 0x38
 800481a:	2b00      	cmp	r3, #0
 800481c:	d1e5      	bne.n	80047ea <UART_EndRxTransfer+0x8>
 800481e:	687b      	ldr	r3, [r7, #4]
 8004820:	681b      	ldr	r3, [r3, #0]
 8004822:	3314      	adds	r3, #20
 8004824:	623b      	str	r3, [r7, #32]
 8004826:	6a3b      	ldr	r3, [r7, #32]
 8004828:	e853 3f00 	ldrex	r3, [r3]
 800482c:	61fb      	str	r3, [r7, #28]
 800482e:	69fb      	ldr	r3, [r7, #28]
 8004830:	f023 0301 	bic.w	r3, r3, #1
 8004834:	64bb      	str	r3, [r7, #72]	@ 0x48
 8004836:	687b      	ldr	r3, [r7, #4]
 8004838:	681b      	ldr	r3, [r3, #0]
 800483a:	3314      	adds	r3, #20
 800483c:	6cba      	ldr	r2, [r7, #72]	@ 0x48
 800483e:	62fa      	str	r2, [r7, #44]	@ 0x2c
 8004840:	62bb      	str	r3, [r7, #40]	@ 0x28
 8004842:	6ab9      	ldr	r1, [r7, #40]	@ 0x28
 8004844:	6afa      	ldr	r2, [r7, #44]	@ 0x2c
 8004846:	e841 2300 	strex	r3, r2, [r1]
 800484a:	627b      	str	r3, [r7, #36]	@ 0x24
 800484c:	6a7b      	ldr	r3, [r7, #36]	@ 0x24
 800484e:	2b00      	cmp	r3, #0
 8004850:	d1e5      	bne.n	800481e <UART_EndRxTransfer+0x3c>
 8004852:	687b      	ldr	r3, [r7, #4]
 8004854:	6b1b      	ldr	r3, [r3, #48]	@ 0x30
 8004856:	2b01      	cmp	r3, #1
 8004858:	d119      	bne.n	800488e <UART_EndRxTransfer+0xac>
 800485a:	687b      	ldr	r3, [r7, #4]
 800485c:	681b      	ldr	r3, [r3, #0]
 800485e:	330c      	adds	r3, #12
 8004860:	60fb      	str	r3, [r7, #12]
 8004862:	68fb      	ldr	r3, [r7, #12]
 8004864:	e853 3f00 	ldrex	r3, [r3]
 8004868:	60bb      	str	r3, [r7, #8]
 800486a:	68bb      	ldr	r3, [r7, #8]
 800486c:	f023 0310 	bic.w	r3, r3, #16
 8004870:	647b      	str	r3, [r7, #68]	@ 0x44
 8004872:	687b      	ldr	r3, [r7, #4]
 8004874:	681b      	ldr	r3, [r3, #0]
 8004876:	330c      	adds	r3, #12
 8004878:	6c7a      	ldr	r2, [r7, #68]	@ 0x44
 800487a:	61ba      	str	r2, [r7, #24]
 800487c:	617b      	str	r3, [r7, #20]
 800487e:	6979      	ldr	r1, [r7, #20]
 8004880:	69ba      	ldr	r2, [r7, #24]
 8004882:	e841 2300 	strex	r3, r2, [r1]
 8004886:	613b      	str	r3, [r7, #16]
 8004888:	693b      	ldr	r3, [r7, #16]
 800488a:	2b00      	cmp	r3, #0
 800488c:	d1e5      	bne.n	800485a <UART_EndRxTransfer+0x78>
 800488e:	687b      	ldr	r3, [r7, #4]
 8004890:	2220      	movs	r2, #32
 8004892:	f883 2042 	strb.w	r2, [r3, #66]	@ 0x42
 8004896:	687b      	ldr	r3, [r7, #4]
 8004898:	2200      	movs	r2, #0
 800489a:	631a      	str	r2, [r3, #48]	@ 0x30
 800489c:	bf00      	nop
 800489e:	3754      	adds	r7, #84	@ 0x54
 80048a0:	46bd      	mov	sp, r7
 80048a2:	bc80      	pop	{r7}
 80048a4:	4770      	bx	lr

080048a6 <UART_DMAAbortOnError>:
 80048a6:	b580      	push	{r7, lr}
 80048a8:	b084      	sub	sp, #16
 80048aa:	af00      	add	r7, sp, #0
 80048ac:	6078      	str	r0, [r7, #4]
 80048ae:	687b      	ldr	r3, [r7, #4]
 80048b0:	6a5b      	ldr	r3, [r3, #36]	@ 0x24
 80048b2:	60fb      	str	r3, [r7, #12]
 80048b4:	68fb      	ldr	r3, [r7, #12]
 80048b6:	2200      	movs	r2, #0
 80048b8:	85da      	strh	r2, [r3, #46]	@ 0x2e
 80048ba:	68fb      	ldr	r3, [r7, #12]
 80048bc:	2200      	movs	r2, #0
 80048be:	84da      	strh	r2, [r3, #38]	@ 0x26
 80048c0:	68f8      	ldr	r0, [r7, #12]
 80048c2:	f7ff fd6c 	bl	800439e <HAL_UART_ErrorCallback>
 80048c6:	bf00      	nop
 80048c8:	3710      	adds	r7, #16
 80048ca:	46bd      	mov	sp, r7
 80048cc:	bd80      	pop	{r7, pc}

080048ce <UART_Transmit_IT>:
 80048ce:	b480      	push	{r7}
 80048d0:	b085      	sub	sp, #20
 80048d2:	af00      	add	r7, sp, #0
 80048d4:	6078      	str	r0, [r7, #4]
 80048d6:	687b      	ldr	r3, [r7, #4]
 80048d8:	f893 3041 	ldrb.w	r3, [r3, #65]	@ 0x41
 80048dc:	b2db      	uxtb	r3, r3
 80048de:	2b21      	cmp	r3, #33	@ 0x21
 80048e0:	d13e      	bne.n	8004960 <UART_Transmit_IT+0x92>
 80048e2:	687b      	ldr	r3, [r7, #4]
 80048e4:	689b      	ldr	r3, [r3, #8]
 80048e6:	f5b3 5f80 	cmp.w	r3, #4096	@ 0x1000
 80048ea:	d114      	bne.n	8004916 <UART_Transmit_IT+0x48>
 80048ec:	687b      	ldr	r3, [r7, #4]
 80048ee:	691b      	ldr	r3, [r3, #16]
 80048f0:	2b00      	cmp	r3, #0
 80048f2:	d110      	bne.n	8004916 <UART_Transmit_IT+0x48>
 80048f4:	687b      	ldr	r3, [r7, #4]
 80048f6:	6a1b      	ldr	r3, [r3, #32]
 80048f8:	60fb      	str	r3, [r7, #12]
 80048fa:	68fb      	ldr	r3, [r7, #12]
 80048fc:	881b      	ldrh	r3, [r3, #0]
 80048fe:	461a      	mov	r2, r3
 8004900:	687b      	ldr	r3, [r7, #4]
 8004902:	681b      	ldr	r3, [r3, #0]
 8004904:	f3c2 0208 	ubfx	r2, r2, #0, #9
 8004908:	605a      	str	r2, [r3, #4]
 800490a:	687b      	ldr	r3, [r7, #4]
 800490c:	6a1b      	ldr	r3, [r3, #32]
 800490e:	1c9a      	adds	r2, r3, #2
 8004910:	687b      	ldr	r3, [r7, #4]
 8004912:	621a      	str	r2, [r3, #32]
 8004914:	e008      	b.n	8004928 <UART_Transmit_IT+0x5a>
 8004916:	687b      	ldr	r3, [r7, #4]
 8004918:	6a1b      	ldr	r3, [r3, #32]
 800491a:	1c59      	adds	r1, r3, #1
 800491c:	687a      	ldr	r2, [r7, #4]
 800491e:	6211      	str	r1, [r2, #32]
 8004920:	781a      	ldrb	r2, [r3, #0]
 8004922:	687b      	ldr	r3, [r7, #4]
 8004924:	681b      	ldr	r3, [r3, #0]
 8004926:	605a      	str	r2, [r3, #4]
 8004928:	687b      	ldr	r3, [r7, #4]
 800492a:	8cdb      	ldrh	r3, [r3, #38]	@ 0x26
 800492c:	b29b      	uxth	r3, r3
 800492e:	3b01      	subs	r3, #1
 8004930:	b29b      	uxth	r3, r3
 8004932:	687a      	ldr	r2, [r7, #4]
 8004934:	4619      	mov	r1, r3
 8004936:	84d1      	strh	r1, [r2, #38]	@ 0x26
 8004938:	2b00      	cmp	r3, #0
 800493a:	d10f      	bne.n	800495c <UART_Transmit_IT+0x8e>
 800493c:	687b      	ldr	r3, [r7, #4]
 800493e:	681b      	ldr	r3, [r3, #0]
 8004940:	68da      	ldr	r2, [r3, #12]
 8004942:	687b      	ldr	r3, [r7, #4]
 8004944:	681b      	ldr	r3, [r3, #0]
 8004946:	f022 0280 	bic.w	r2, r2, #128	@ 0x80
 800494a:	60da      	str	r2, [r3, #12]
 800494c:	687b      	ldr	r3, [r7, #4]
 800494e:	681b      	ldr	r3, [r3, #0]
 8004950:	68da      	ldr	r2, [r3, #12]
 8004952:	687b      	ldr	r3, [r7, #4]
 8004954:	681b      	ldr	r3, [r3, #0]
 8004956:	f042 0240 	orr.w	r2, r2, #64	@ 0x40
 800495a:	60da      	str	r2, [r3, #12]
 800495c:	2300      	movs	r3, #0
 800495e:	e000      	b.n	8004962 <UART_Transmit_IT+0x94>
 8004960:	2302      	movs	r3, #2
 8004962:	4618      	mov	r0, r3
 8004964:	3714      	adds	r7, #20
 8004966:	46bd      	mov	sp, r7
 8004968:	bc80      	pop	{r7}
 800496a:	4770      	bx	lr

0800496c <UART_EndTransmit_IT>:
 800496c:	b580      	push	{r7, lr}
 800496e:	b082      	sub	sp, #8
 8004970:	af00      	add	r7, sp, #0
 8004972:	6078      	str	r0, [r7, #4]
 8004974:	687b      	ldr	r3, [r7, #4]
 8004976:	681b      	ldr	r3, [r3, #0]
 8004978:	68da      	ldr	r2, [r3, #12]
 800497a:	687b      	ldr	r3, [r7, #4]
 800497c:	681b      	ldr	r3, [r3, #0]
 800497e:	f022 0240 	bic.w	r2, r2, #64	@ 0x40
 8004982:	60da      	str	r2, [r3, #12]
 8004984:	687b      	ldr	r3, [r7, #4]
 8004986:	2220      	movs	r2, #32
 8004988:	f883 2041 	strb.w	r2, [r3, #65]	@ 0x41
 800498c:	6878      	ldr	r0, [r7, #4]
 800498e:	f7ff fceb 	bl	8004368 <HAL_UART_TxCpltCallback>
 8004992:	2300      	movs	r3, #0
 8004994:	4618      	mov	r0, r3
 8004996:	3708      	adds	r7, #8
 8004998:	46bd      	mov	sp, r7
 800499a:	bd80      	pop	{r7, pc}

0800499c <UART_Receive_IT>:
 800499c:	b580      	push	{r7, lr}
 800499e:	b08c      	sub	sp, #48	@ 0x30
 80049a0:	af00      	add	r7, sp, #0
 80049a2:	6078      	str	r0, [r7, #4]
 80049a4:	687b      	ldr	r3, [r7, #4]
 80049a6:	f893 3042 	ldrb.w	r3, [r3, #66]	@ 0x42
 80049aa:	b2db      	uxtb	r3, r3
 80049ac:	2b22      	cmp	r3, #34	@ 0x22
 80049ae:	f040 80ae 	bne.w	8004b0e <UART_Receive_IT+0x172>
 80049b2:	687b      	ldr	r3, [r7, #4]
 80049b4:	689b      	ldr	r3, [r3, #8]
 80049b6:	f5b3 5f80 	cmp.w	r3, #4096	@ 0x1000
 80049ba:	d117      	bne.n	80049ec <UART_Receive_IT+0x50>
 80049bc:	687b      	ldr	r3, [r7, #4]
 80049be:	691b      	ldr	r3, [r3, #16]
 80049c0:	2b00      	cmp	r3, #0
 80049c2:	d113      	bne.n	80049ec <UART_Receive_IT+0x50>
 80049c4:	2300      	movs	r3, #0
 80049c6:	62fb      	str	r3, [r7, #44]	@ 0x2c
 80049c8:	687b      	ldr	r3, [r7, #4]
 80049ca:	6a9b      	ldr	r3, [r3, #40]	@ 0x28
 80049cc:	62bb      	str	r3, [r7, #40]	@ 0x28
 80049ce:	687b      	ldr	r3, [r7, #4]
 80049d0:	681b      	ldr	r3, [r3, #0]
 80049d2:	685b      	ldr	r3, [r3, #4]
 80049d4:	b29b      	uxth	r3, r3
 80049d6:	f3c3 0308 	ubfx	r3, r3, #0, #9
 80049da:	b29a      	uxth	r2, r3
 80049dc:	6abb      	ldr	r3, [r7, #40]	@ 0x28
 80049de:	801a      	strh	r2, [r3, #0]
 80049e0:	687b      	ldr	r3, [r7, #4]
 80049e2:	6a9b      	ldr	r3, [r3, #40]	@ 0x28
 80049e4:	1c9a      	adds	r2, r3, #2
 80049e6:	687b      	ldr	r3, [r7, #4]
 80049e8:	629a      	str	r2, [r3, #40]	@ 0x28
 80049ea:	e026      	b.n	8004a3a <UART_Receive_IT+0x9e>
 80049ec:	687b      	ldr	r3, [r7, #4]
 80049ee:	6a9b      	ldr	r3, [r3, #40]	@ 0x28
 80049f0:	62fb      	str	r3, [r7, #44]	@ 0x2c
 80049f2:	2300      	movs	r3, #0
 80049f4:	62bb      	str	r3, [r7, #40]	@ 0x28
 80049f6:	687b      	ldr	r3, [r7, #4]
 80049f8:	689b      	ldr	r3, [r3, #8]
 80049fa:	f5b3 5f80 	cmp.w	r3, #4096	@ 0x1000
 80049fe:	d007      	beq.n	8004a10 <UART_Receive_IT+0x74>
 8004a00:	687b      	ldr	r3, [r7, #4]
 8004a02:	689b      	ldr	r3, [r3, #8]
 8004a04:	2b00      	cmp	r3, #0
 8004a06:	d10a      	bne.n	8004a1e <UART_Receive_IT+0x82>
 8004a08:	687b      	ldr	r3, [r7, #4]
 8004a0a:	691b      	ldr	r3, [r3, #16]
 8004a0c:	2b00      	cmp	r3, #0
 8004a0e:	d106      	bne.n	8004a1e <UART_Receive_IT+0x82>
 8004a10:	687b      	ldr	r3, [r7, #4]
 8004a12:	681b      	ldr	r3, [r3, #0]
 8004a14:	685b      	ldr	r3, [r3, #4]
 8004a16:	b2da      	uxtb	r2, r3
 8004a18:	6afb      	ldr	r3, [r7, #44]	@ 0x2c
 8004a1a:	701a      	strb	r2, [r3, #0]
 8004a1c:	e008      	b.n	8004a30 <UART_Receive_IT+0x94>
 8004a1e:	687b      	ldr	r3, [r7, #4]
 8004a20:	681b      	ldr	r3, [r3, #0]
 8004a22:	685b      	ldr	r3, [r3, #4]
 8004a24:	b2db      	uxtb	r3, r3
 8004a26:	f003 037f 	and.w	r3, r3, #127	@ 0x7f
 8004a2a:	b2da      	uxtb	r2, r3
 8004a2c:	6afb      	ldr	r3, [r7, #44]	@ 0x2c
 8004a2e:	701a      	strb	r2, [r3, #0]
 8004a30:	687b      	ldr	r3, [r7, #4]
 8004a32:	6a9b      	ldr	r3, [r3, #40]	@ 0x28
 8004a34:	1c5a      	adds	r2, r3, #1
 8004a36:	687b      	ldr	r3, [r7, #4]
 8004a38:	629a      	str	r2, [r3, #40]	@ 0x28
 8004a3a:	687b      	ldr	r3, [r7, #4]
 8004a3c:	8ddb      	ldrh	r3, [r3, #46]	@ 0x2e
 8004a3e:	b29b      	uxth	r3, r3
 8004a40:	3b01      	subs	r3, #1
 8004a42:	b29b      	uxth	r3, r3
 8004a44:	687a      	ldr	r2, [r7, #4]
 8004a46:	4619      	mov	r1, r3
 8004a48:	85d1      	strh	r1, [r2, #46]	@ 0x2e
 8004a4a:	2b00      	cmp	r3, #0
 8004a4c:	d15d      	bne.n	8004b0a <UART_Receive_IT+0x16e>
 8004a4e:	687b      	ldr	r3, [r7, #4]
 8004a50:	681b      	ldr	r3, [r3, #0]
 8004a52:	68da      	ldr	r2, [r3, #12]
 8004a54:	687b      	ldr	r3, [r7, #4]
 8004a56:	681b      	ldr	r3, [r3, #0]
 8004a58:	f022 0220 	bic.w	r2, r2, #32
 8004a5c:	60da      	str	r2, [r3, #12]
 8004a5e:	687b      	ldr	r3, [r7, #4]
 8004a60:	681b      	ldr	r3, [r3, #0]
 8004a62:	68da      	ldr	r2, [r3, #12]
 8004a64:	687b      	ldr	r3, [r7, #4]
 8004a66:	681b      	ldr	r3, [r3, #0]
 8004a68:	f422 7280 	bic.w	r2, r2, #256	@ 0x100
 8004a6c:	60da      	str	r2, [r3, #12]
 8004a6e:	687b      	ldr	r3, [r7, #4]
 8004a70:	681b      	ldr	r3, [r3, #0]
 8004a72:	695a      	ldr	r2, [r3, #20]
 8004a74:	687b      	ldr	r3, [r7, #4]
 8004a76:	681b      	ldr	r3, [r3, #0]
 8004a78:	f022 0201 	bic.w	r2, r2, #1
 8004a7c:	615a      	str	r2, [r3, #20]
 8004a7e:	687b      	ldr	r3, [r7, #4]
 8004a80:	2220      	movs	r2, #32
 8004a82:	f883 2042 	strb.w	r2, [r3, #66]	@ 0x42
 8004a86:	687b      	ldr	r3, [r7, #4]
 8004a88:	2200      	movs	r2, #0
 8004a8a:	635a      	str	r2, [r3, #52]	@ 0x34
 8004a8c:	687b      	ldr	r3, [r7, #4]
 8004a8e:	6b1b      	ldr	r3, [r3, #48]	@ 0x30
 8004a90:	2b01      	cmp	r3, #1
 8004a92:	d135      	bne.n	8004b00 <UART_Receive_IT+0x164>
 8004a94:	687b      	ldr	r3, [r7, #4]
 8004a96:	2200      	movs	r2, #0
 8004a98:	631a      	str	r2, [r3, #48]	@ 0x30
 8004a9a:	687b      	ldr	r3, [r7, #4]
 8004a9c:	681b      	ldr	r3, [r3, #0]
 8004a9e:	330c      	adds	r3, #12
 8004aa0:	617b      	str	r3, [r7, #20]
 8004aa2:	697b      	ldr	r3, [r7, #20]
 8004aa4:	e853 3f00 	ldrex	r3, [r3]
 8004aa8:	613b      	str	r3, [r7, #16]
 8004aaa:	693b      	ldr	r3, [r7, #16]
 8004aac:	f023 0310 	bic.w	r3, r3, #16
 8004ab0:	627b      	str	r3, [r7, #36]	@ 0x24
 8004ab2:	687b      	ldr	r3, [r7, #4]
 8004ab4:	681b      	ldr	r3, [r3, #0]
 8004ab6:	330c      	adds	r3, #12
 8004ab8:	6a7a      	ldr	r2, [r7, #36]	@ 0x24
 8004aba:	623a      	str	r2, [r7, #32]
 8004abc:	61fb      	str	r3, [r7, #28]
 8004abe:	69f9      	ldr	r1, [r7, #28]
 8004ac0:	6a3a      	ldr	r2, [r7, #32]
 8004ac2:	e841 2300 	strex	r3, r2, [r1]
 8004ac6:	61bb      	str	r3, [r7, #24]
 8004ac8:	69bb      	ldr	r3, [r7, #24]
 8004aca:	2b00      	cmp	r3, #0
 8004acc:	d1e5      	bne.n	8004a9a <UART_Receive_IT+0xfe>
 8004ace:	687b      	ldr	r3, [r7, #4]
 8004ad0:	681b      	ldr	r3, [r3, #0]
 8004ad2:	681b      	ldr	r3, [r3, #0]
 8004ad4:	f003 0310 	and.w	r3, r3, #16
 8004ad8:	2b10      	cmp	r3, #16
 8004ada:	d10a      	bne.n	8004af2 <UART_Receive_IT+0x156>
 8004adc:	2300      	movs	r3, #0
 8004ade:	60fb      	str	r3, [r7, #12]
 8004ae0:	687b      	ldr	r3, [r7, #4]
 8004ae2:	681b      	ldr	r3, [r3, #0]
 8004ae4:	681b      	ldr	r3, [r3, #0]
 8004ae6:	60fb      	str	r3, [r7, #12]
 8004ae8:	687b      	ldr	r3, [r7, #4]
 8004aea:	681b      	ldr	r3, [r3, #0]
 8004aec:	685b      	ldr	r3, [r3, #4]
 8004aee:	60fb      	str	r3, [r7, #12]
 8004af0:	68fb      	ldr	r3, [r7, #12]
 8004af2:	687b      	ldr	r3, [r7, #4]
 8004af4:	8d9b      	ldrh	r3, [r3, #44]	@ 0x2c
 8004af6:	4619      	mov	r1, r3
 8004af8:	6878      	ldr	r0, [r7, #4]
 8004afa:	f7fb fda1 	bl	8000640 <HAL_UARTEx_RxEventCallback>
 8004afe:	e002      	b.n	8004b06 <UART_Receive_IT+0x16a>
 8004b00:	6878      	ldr	r0, [r7, #4]
 8004b02:	f7ff fc3a 	bl	800437a <HAL_UART_RxCpltCallback>
 8004b06:	2300      	movs	r3, #0
 8004b08:	e002      	b.n	8004b10 <UART_Receive_IT+0x174>
 8004b0a:	2300      	movs	r3, #0
 8004b0c:	e000      	b.n	8004b10 <UART_Receive_IT+0x174>
 8004b0e:	2302      	movs	r3, #2
 8004b10:	4618      	mov	r0, r3
 8004b12:	3730      	adds	r7, #48	@ 0x30
 8004b14:	46bd      	mov	sp, r7
 8004b16:	bd80      	pop	{r7, pc}

08004b18 <UART_SetConfig>:
 8004b18:	b580      	push	{r7, lr}
 8004b1a:	b084      	sub	sp, #16
 8004b1c:	af00      	add	r7, sp, #0
 8004b1e:	6078      	str	r0, [r7, #4]
 8004b20:	687b      	ldr	r3, [r7, #4]
 8004b22:	681b      	ldr	r3, [r3, #0]
 8004b24:	691b      	ldr	r3, [r3, #16]
 8004b26:	f423 5140 	bic.w	r1, r3, #12288	@ 0x3000
 8004b2a:	687b      	ldr	r3, [r7, #4]
 8004b2c:	68da      	ldr	r2, [r3, #12]
 8004b2e:	687b      	ldr	r3, [r7, #4]
 8004b30:	681b      	ldr	r3, [r3, #0]
 8004b32:	430a      	orrs	r2, r1
 8004b34:	611a      	str	r2, [r3, #16]
 8004b36:	687b      	ldr	r3, [r7, #4]
 8004b38:	689a      	ldr	r2, [r3, #8]
 8004b3a:	687b      	ldr	r3, [r7, #4]
 8004b3c:	691b      	ldr	r3, [r3, #16]
 8004b3e:	431a      	orrs	r2, r3
 8004b40:	687b      	ldr	r3, [r7, #4]
 8004b42:	695b      	ldr	r3, [r3, #20]
 8004b44:	4313      	orrs	r3, r2
 8004b46:	60bb      	str	r3, [r7, #8]
 8004b48:	687b      	ldr	r3, [r7, #4]
 8004b4a:	681b      	ldr	r3, [r3, #0]
 8004b4c:	68db      	ldr	r3, [r3, #12]
 8004b4e:	f423 53b0 	bic.w	r3, r3, #5632	@ 0x1600
 8004b52:	f023 030c 	bic.w	r3, r3, #12
 8004b56:	687a      	ldr	r2, [r7, #4]
 8004b58:	6812      	ldr	r2, [r2, #0]
 8004b5a:	68b9      	ldr	r1, [r7, #8]
 8004b5c:	430b      	orrs	r3, r1
 8004b5e:	60d3      	str	r3, [r2, #12]
 8004b60:	687b      	ldr	r3, [r7, #4]
 8004b62:	681b      	ldr	r3, [r3, #0]
 8004b64:	695b      	ldr	r3, [r3, #20]
 8004b66:	f423 7140 	bic.w	r1, r3, #768	@ 0x300
 8004b6a:	687b      	ldr	r3, [r7, #4]
 8004b6c:	699a      	ldr	r2, [r3, #24]
 8004b6e:	687b      	ldr	r3, [r7, #4]
 8004b70:	681b      	ldr	r3, [r3, #0]
 8004b72:	430a      	orrs	r2, r1
 8004b74:	615a      	str	r2, [r3, #20]
 8004b76:	687b      	ldr	r3, [r7, #4]
 8004b78:	681b      	ldr	r3, [r3, #0]
 8004b7a:	4a2c      	ldr	r2, [pc, #176]	@ (8004c2c <UART_SetConfig+0x114>)
 8004b7c:	4293      	cmp	r3, r2
 8004b7e:	d103      	bne.n	8004b88 <UART_SetConfig+0x70>
 8004b80:	f7fe fc08 	bl	8003394 <HAL_RCC_GetPCLK2Freq>
 8004b84:	60f8      	str	r0, [r7, #12]
 8004b86:	e002      	b.n	8004b8e <UART_SetConfig+0x76>
 8004b88:	f7fe fbf0 	bl	800336c <HAL_RCC_GetPCLK1Freq>
 8004b8c:	60f8      	str	r0, [r7, #12]
 8004b8e:	68fa      	ldr	r2, [r7, #12]
 8004b90:	4613      	mov	r3, r2
 8004b92:	009b      	lsls	r3, r3, #2
 8004b94:	4413      	add	r3, r2
 8004b96:	009a      	lsls	r2, r3, #2
 8004b98:	441a      	add	r2, r3
 8004b9a:	687b      	ldr	r3, [r7, #4]
 8004b9c:	685b      	ldr	r3, [r3, #4]
 8004b9e:	009b      	lsls	r3, r3, #2
 8004ba0:	fbb2 f3f3 	udiv	r3, r2, r3
 8004ba4:	4a22      	ldr	r2, [pc, #136]	@ (8004c30 <UART_SetConfig+0x118>)
 8004ba6:	fba2 2303 	umull	r2, r3, r2, r3
 8004baa:	095b      	lsrs	r3, r3, #5
 8004bac:	0119      	lsls	r1, r3, #4
 8004bae:	68fa      	ldr	r2, [r7, #12]
 8004bb0:	4613      	mov	r3, r2
 8004bb2:	009b      	lsls	r3, r3, #2
 8004bb4:	4413      	add	r3, r2
 8004bb6:	009a      	lsls	r2, r3, #2
 8004bb8:	441a      	add	r2, r3
 8004bba:	687b      	ldr	r3, [r7, #4]
 8004bbc:	685b      	ldr	r3, [r3, #4]
 8004bbe:	009b      	lsls	r3, r3, #2
 8004bc0:	fbb2 f2f3 	udiv	r2, r2, r3
 8004bc4:	4b1a      	ldr	r3, [pc, #104]	@ (8004c30 <UART_SetConfig+0x118>)
 8004bc6:	fba3 0302 	umull	r0, r3, r3, r2
 8004bca:	095b      	lsrs	r3, r3, #5
 8004bcc:	2064      	movs	r0, #100	@ 0x64
 8004bce:	fb00 f303 	mul.w	r3, r0, r3
 8004bd2:	1ad3      	subs	r3, r2, r3
 8004bd4:	011b      	lsls	r3, r3, #4
 8004bd6:	3332      	adds	r3, #50	@ 0x32
 8004bd8:	4a15      	ldr	r2, [pc, #84]	@ (8004c30 <UART_SetConfig+0x118>)
 8004bda:	fba2 2303 	umull	r2, r3, r2, r3
 8004bde:	095b      	lsrs	r3, r3, #5
 8004be0:	f003 03f0 	and.w	r3, r3, #240	@ 0xf0
 8004be4:	4419      	add	r1, r3
 8004be6:	68fa      	ldr	r2, [r7, #12]
 8004be8:	4613      	mov	r3, r2
 8004bea:	009b      	lsls	r3, r3, #2
 8004bec:	4413      	add	r3, r2
 8004bee:	009a      	lsls	r2, r3, #2
 8004bf0:	441a      	add	r2, r3
 8004bf2:	687b      	ldr	r3, [r7, #4]
 8004bf4:	685b      	ldr	r3, [r3, #4]
 8004bf6:	009b      	lsls	r3, r3, #2
 8004bf8:	fbb2 f2f3 	udiv	r2, r2, r3
 8004bfc:	4b0c      	ldr	r3, [pc, #48]	@ (8004c30 <UART_SetConfig+0x118>)
 8004bfe:	fba3 0302 	umull	r0, r3, r3, r2
 8004c02:	095b      	lsrs	r3, r3, #5
 8004c04:	2064      	movs	r0, #100	@ 0x64
 8004c06:	fb00 f303 	mul.w	r3, r0, r3
 8004c0a:	1ad3      	subs	r3, r2, r3
 8004c0c:	011b      	lsls	r3, r3, #4
 8004c0e:	3332      	adds	r3, #50	@ 0x32
 8004c10:	4a07      	ldr	r2, [pc, #28]	@ (8004c30 <UART_SetConfig+0x118>)
 8004c12:	fba2 2303 	umull	r2, r3, r2, r3
 8004c16:	095b      	lsrs	r3, r3, #5
 8004c18:	f003 020f 	and.w	r2, r3, #15
 8004c1c:	687b      	ldr	r3, [r7, #4]
 8004c1e:	681b      	ldr	r3, [r3, #0]
 8004c20:	440a      	add	r2, r1
 8004c22:	609a      	str	r2, [r3, #8]
 8004c24:	bf00      	nop
 8004c26:	3710      	adds	r7, #16
 8004c28:	46bd      	mov	sp, r7
 8004c2a:	bd80      	pop	{r7, pc}
 8004c2c:	40013800 	.word	0x40013800
 8004c30:	51eb851f 	.word	0x51eb851f

08004c34 <memset>:
 8004c34:	4603      	mov	r3, r0
 8004c36:	4402      	add	r2, r0
 8004c38:	4293      	cmp	r3, r2
 8004c3a:	d100      	bne.n	8004c3e <memset+0xa>
 8004c3c:	4770      	bx	lr
 8004c3e:	f803 1b01 	strb.w	r1, [r3], #1
 8004c42:	e7f9      	b.n	8004c38 <memset+0x4>

08004c44 <__libc_init_array>:
 8004c44:	b570      	push	{r4, r5, r6, lr}
 8004c46:	2600      	movs	r6, #0
 8004c48:	4d0c      	ldr	r5, [pc, #48]	@ (8004c7c <__libc_init_array+0x38>)
 8004c4a:	4c0d      	ldr	r4, [pc, #52]	@ (8004c80 <__libc_init_array+0x3c>)
 8004c4c:	1b64      	subs	r4, r4, r5
 8004c4e:	10a4      	asrs	r4, r4, #2
 8004c50:	42a6      	cmp	r6, r4
 8004c52:	d109      	bne.n	8004c68 <__libc_init_array+0x24>
 8004c54:	f000 f81a 	bl	8004c8c <_init>
 8004c58:	2600      	movs	r6, #0
 8004c5a:	4d0a      	ldr	r5, [pc, #40]	@ (8004c84 <__libc_init_array+0x40>)
 8004c5c:	4c0a      	ldr	r4, [pc, #40]	@ (8004c88 <__libc_init_array+0x44>)
 8004c5e:	1b64      	subs	r4, r4, r5
 8004c60:	10a4      	asrs	r4, r4, #2
 8004c62:	42a6      	cmp	r6, r4
 8004c64:	d105      	bne.n	8004c72 <__libc_init_array+0x2e>
 8004c66:	bd70      	pop	{r4, r5, r6, pc}
 8004c68:	f855 3b04 	ldr.w	r3, [r5], #4
 8004c6c:	4798      	blx	r3
 8004c6e:	3601      	adds	r6, #1
 8004c70:	e7ee      	b.n	8004c50 <__libc_init_array+0xc>
 8004c72:	f855 3b04 	ldr.w	r3, [r5], #4
 8004c76:	4798      	blx	r3
 8004c78:	3601      	adds	r6, #1
 8004c7a:	e7f2      	b.n	8004c62 <__libc_init_array+0x1e>
 8004c7c:	08004cd0 	.word	0x08004cd0
 8004c80:	08004cd0 	.word	0x08004cd0
 8004c84:	08004cd0 	.word	0x08004cd0
 8004c88:	08004cd4 	.word	0x08004cd4

08004c8c <_init>:
 8004c8c:	b5f8      	push	{r3, r4, r5, r6, r7, lr}
 8004c8e:	bf00      	nop
 8004c90:	bcf8      	pop	{r3, r4, r5, r6, r7}
 8004c92:	bc08      	pop	{r3}
 8004c94:	469e      	mov	lr, r3
 8004c96:	4770      	bx	lr

08004c98 <_fini>:
 8004c98:	b5f8      	push	{r3, r4, r5, r6, r7, lr}
 8004c9a:	bf00      	nop
 8004c9c:	bcf8      	pop	{r3, r4, r5, r6, r7}
 8004c9e:	bc08      	pop	{r3}
 8004ca0:	469e      	mov	lr, r3
 8004ca2:	4770      	bx	lr
